

Microchip MPLAB XC8 Assembler V2.41 build 20230208172133 
                                                                                               Thu Nov 23 16:41:10 2023

Microchip MPLAB XC8 C Compiler v2.41 (Free license) build 20230208172133 Og1 
     1                           	processor	18F46K42
     2                           	fnconf	rparam,??,?,0
     3                           	pagewidth 120
     4                           	opt	flic
     5                           	psect	idataCOMRAM,global,class=CODE,delta=1,noexec
     6                           	psect	idataBANK0,global,class=CODE,delta=1,noexec
     7                           	psect	idataBANK1,global,class=CODE,delta=1,noexec
     8                           	psect	smallconst,global,reloc=2,class=SMALLCONST,delta=1,noexec
     9                           	psect	nvCOMRAM,global,class=COMRAM,space=1,delta=1,lowdata,noexec
    10                           	psect	nvBANK1,global,class=BANK1,space=1,delta=1,lowdata,noexec
    11                           	psect	cinit,global,reloc=2,class=CODE,delta=1
    12                           	psect	bssCOMRAM,global,class=COMRAM,space=1,delta=1,lowdata,noexec
    13                           	psect	dataCOMRAM,global,class=COMRAM,space=1,delta=1,lowdata,noexec
    14                           	psect	bssBANK0,global,class=BANK0,space=1,delta=1,lowdata,noexec
    15                           	psect	dataBANK0,global,class=BANK0,space=1,delta=1,lowdata,noexec
    16                           	psect	bssBANK1,global,class=BANK1,space=1,delta=1,lowdata,noexec
    17                           	psect	dataBANK1,global,class=BANK1,space=1,delta=1,lowdata,noexec
    18                           	psect	bssBANK2,global,class=BANK2,space=1,delta=1,lowdata,noexec
    19                           	psect	cstackBANK1,global,class=BANK1,space=1,delta=1,lowdata,noexec
    20                           	psect	cstackBANK0,global,class=BANK0,space=1,delta=1,lowdata,noexec
    21                           	psect	cstackCOMRAM,global,class=COMRAM,space=1,delta=1,lowdata,noexec
    22                           	psect	text0,global,reloc=2,class=CODE,delta=1
    23                           	psect	text1,global,reloc=2,class=CODE,delta=1
    24                           	psect	text2,global,reloc=2,class=CODE,delta=1
    25                           	psect	text3,global,reloc=2,class=CODE,delta=1
    26                           	psect	text4,global,reloc=2,class=CODE,delta=1
    27                           	psect	text5,global,reloc=2,class=CODE,delta=1
    28                           	psect	text6,global,reloc=2,class=CODE,delta=1
    29                           	psect	text7,global,reloc=2,class=CODE,delta=1
    30                           	psect	text8,global,reloc=2,class=CODE,delta=1
    31                           	psect	text9,global,reloc=2,class=CODE,delta=1
    32                           	psect	text10,global,reloc=2,class=CODE,delta=1
    33                           	psect	text11,global,reloc=2,class=CODE,delta=1
    34                           	psect	text12,global,reloc=2,class=CODE,delta=1
    35                           	psect	text13,global,reloc=2,class=CODE,delta=1
    36                           	psect	text14,global,reloc=2,class=CODE,delta=1
    37                           	psect	text15,global,reloc=2,class=CODE,delta=1
    38                           	psect	text16,global,reloc=2,class=CODE,delta=1
    39                           	psect	text17,global,reloc=2,class=CODE,delta=1
    40                           	psect	text18,global,reloc=2,class=CODE,delta=1
    41                           	psect	text19,global,reloc=2,class=CODE,delta=1
    42                           	psect	text20,global,reloc=2,class=CODE,delta=1
    43                           	psect	text21,global,reloc=2,class=CODE,delta=1
    44                           	psect	text22,global,reloc=2,class=CODE,delta=1
    45                           	psect	text23,global,reloc=2,class=CODE,delta=1
    46                           	psect	text24,global,reloc=2,class=CODE,delta=1
    47                           	psect	text25,global,reloc=2,class=CODE,delta=1
    48                           	psect	text26,global,reloc=2,class=CODE,delta=1
    49                           	psect	text27,global,reloc=2,class=CODE,delta=1
    50                           	psect	text28,global,reloc=2,class=CODE,delta=1
    51                           	psect	text29,global,reloc=2,class=CODE,delta=1
    52                           	psect	text30,global,reloc=2,class=CODE,delta=1
    53                           	psect	text31,global,reloc=2,class=CODE,delta=1
    54                           	psect	text32,global,reloc=2,class=CODE,delta=1
    55                           	psect	text33,global,reloc=2,class=CODE,delta=1
    56                           	psect	text34,global,reloc=2,class=CODE,delta=1
    57                           	psect	text35,global,reloc=2,class=CODE,delta=1
    58                           	psect	text36,global,reloc=2,class=CODE,delta=1,group=1
    59                           	psect	text37,global,reloc=2,class=CODE,delta=1
    60                           	psect	text38,global,reloc=2,class=CODE,delta=1
    61                           	psect	text39,global,reloc=2,class=CODE,delta=1
    62                           	psect	text40,global,reloc=2,class=CODE,delta=1
    63                           	psect	text41,global,reloc=2,class=CODE,delta=1
    64                           	psect	text42,global,reloc=2,class=CODE,delta=1
    65                           	psect	text43,global,reloc=2,class=CODE,delta=1
    66                           	psect	text44,global,reloc=2,class=CODE,delta=1
    67                           	psect	text45,global,reloc=2,class=CODE,delta=1
    68                           	psect	text46,global,reloc=2,class=CODE,delta=1
    69                           	psect	ivt0x8,global,reloc=2,class=CODE,delta=1,noexec,keep,optim=
    70                           	psect	intsave_regs,global,class=BIGRAM,space=1,delta=1,noexec
    71                           	psect	text47,global,reloc=2,class=CODE,delta=1
    72                           	psect	rparam,global,class=COMRAM,space=1,delta=1,noexec
    73                           	psect	idloc,global,abs,ovrld,class=IDLOC,space=5,delta=1,noexec
    74                           	psect	config,global,abs,ovrld,class=CONFIG,space=4,delta=1,noexec
    75   000000                     
    76                           ; Generated 21/07/2023 GMT
    77                           ; 
    78                           ; Copyright © 2023, Microchip Technology Inc. and its subsidiaries ("Microchip")
    79                           ; All rights reserved.
    80                           ; 
    81                           ; This software is developed by Microchip Technology Inc. and its subsidiaries ("Microch
      +                          ip").
    82                           ; 
    83                           ; Redistribution and use in source and binary forms, with or without modification, are
    84                           ; permitted provided that the following conditions are met:
    85                           ; 
    86                           ;     1. Redistributions of source code must retain the above copyright notice, this lis
      +                          t of
    87                           ;        conditions and the following disclaimer.
    88                           ; 
    89                           ;     2. Redistributions in binary form must reproduce the above copyright notice, this 
      +                          list
    90                           ;        of conditions and the following disclaimer in the documentation and/or other
    91                           ;        materials provided with the distribution. Publication is not required when
    92                           ;        this file is used in an embedded application.
    93                           ; 
    94                           ;     3. Microchip's name may not be used to endorse or promote products derived from th
      +                          is
    95                           ;        software without specific prior written permission.
    96                           ; 
    97                           ; THIS SOFTWARE IS PROVIDED BY MICROCHIP "AS IS" AND ANY EXPRESS OR IMPLIED WARRANTIES,
    98                           ; INCLUDING, BUT NOT LIMITED TO, THE IMPLIED WARRANTIES OF MERCHANTABILITY AND FITNESS F
      +                          OR
    99                           ; PURPOSE ARE DISCLAIMED.  IN NO EVENT SHALL MICROCHIP BE LIABLE FOR ANY DIRECT, INDIREC
      +                          T,
   100                           ; INCIDENTAL, SPECIAL, EXEMPLARY, OR CONSEQUENTIAL DAMAGES (INCLUDING BUT NOT LIMITED TO
   101                           ; PROCUREMENT OF SUBSTITUTE GOODS OR SERVICES; LOSS OF USE, DATA OR PROFITS; OR BUSINESS
   102                           ; INTERRUPTION) HOWSOEVER CAUSED AND ON ANY THEORY OF LIABILITY, WHETHER IN CONTRACT, ST
      +                          RICT
   103                           ; LIABILITY, OR TORT (INCLUDING NEGLIGENCE OR OTHERWISE) ARISING IN ANY WAY OUT OF THE U
      +                          SE OF
   104                           ; THIS SOFTWARE, EVEN IF ADVISED OF THE POSSIBILITY OF SUCH DAMAGE.
   105                           ; 
   106                           ; 
   107                           ; Code-generator required, PIC18F46K42 Definitions
   108                           ; 
   109                           ; SFR Addresses
   110   000000                     
   111 ;; Function _TMR2_DefaultInterruptHandler is unused but had its address taken
   112   000000                     
   113 ;; Function _TMR4_DefaultInterruptHandler is unused but had its address taken
   114   000000                     
   115                           	psect	idataCOMRAM
   116   002E9E                     __pidataCOMRAM:
   117                           	callstack 0
   118                           
   119                           ;initializer for _eusart1
   120   002E9E  00                 	db	low _struct_eusart1
   121   002E9F  02                 	db	high _struct_eusart1
   122                           
   123                           	psect	idataBANK0
   124   002E96                     __pidataBANK0:
   125                           	callstack 0
   126                           
   127                           ;initializer for _send_Fs
   128   002E96  FF                 	db	255
   129   002E97  FF                 	db	255
   130   002E98  FF                 	db	255
   131   002E99  00                 	db	0
   132                           
   133                           	psect	idataBANK1
   134   002C74                     __pidataBANK1:
   135                           	callstack 0
   136                           
   137                           ;initializer for categorize_number@F16940
   138   002C74  30                 	db	48
   139   002C75  31                 	db	49
   140   002C76  32                 	db	50
   141   002C77  33                 	db	51
   142   002C78  34                 	db	52
   143   002C79  35                 	db	53
   144   002C7A  36                 	db	54
   145   002C7B  37                 	db	55
   146   002C7C  38                 	db	56
   147   002C7D  39                 	db	57
   148   002C7E  41                 	db	65
   149   002C7F  42                 	db	66
   150   002C80  43                 	db	67
   151   002C81  44                 	db	68
   152   002C82  45                 	db	69
   153   002C83  46                 	db	70
   154                           
   155                           ;initializer for _FIR_num
   156   002C84  0000               	dw	0
   157   002C86  000C               	dw	12
   158   002C88  FF94               	dw	65428
   159   002C8A  FD3C               	dw	64828
   160   002C8C  FC64               	dw	64612
   161   002C8E  0A1C               	dw	2588
   162   002C90  2D30               	dw	11568
   163   002C92  4F70               	dw	20336
   164   002C94  4F70               	dw	20336
   165   002C96  2D30               	dw	11568
   166   002C98  0A1C               	dw	2588
   167   002C9A  FC64               	dw	64612
   168   002C9C  FD3C               	dw	64828
   169   002C9E  FF94               	dw	65428
   170   002CA0  000C               	dw	12
   171   002CA2  0000               	dw	0
   172                           
   173                           ;initializer for _FIR_num_sim
   174   002CA4  0000               	dw	0
   175   002CA6  000C               	dw	12
   176   002CA8  FF94               	dw	65428
   177   002CAA  FD3C               	dw	64828
   178   002CAC  FC64               	dw	64612
   179   002CAE  0A1C               	dw	2588
   180   002CB0  2D30               	dw	11568
   181   002CB2  4F70               	dw	20336
   182                           
   183                           	psect	smallconst
   184   001000                     __psmallconst:
   185                           	callstack 0
   186   001000  00                 	db	0
   187   001001                     _spi1_configuration:
   188                           	callstack 0
   189   001001  02                 	db	2
   190   001002  40                 	db	64
   191   001003  00                 	db	0
   192   001004  03                 	db	3
   193   001005  00                 	db	0
   194   001006                     __end_of_spi1_configuration:
   195                           	callstack 0
   196   000000                     _T4CON	set	16288
   197   000000                     _T2CON	set	16300
   198   000000                     _OSCTUNE	set	14814
   199   000000                     _OSCFRQ	set	14815
   200   000000                     _ADERRL	set	16098
   201   000000                     _ADERRH	set	16099
   202   000000                     _ADPREVL	set	16109
   203   000000                     _ADPREVH	set	16110
   204   000000                     _ADFLTRL	set	16102
   205   000000                     _ADFLTRH	set	16103
   206   000000                     _ADACCL	set	16104
   207   000000                     _ADACCH	set	16105
   208   000000                     _ADCNT	set	16107
   209   000000                     _ADRESL	set	16111
   210   000000                     _ADRESH	set	16112
   211   000000                     _ADCON0	set	16120
   212   000000                     _ADCON1	set	16121
   213   000000                     _ADPREH	set	16119
   214   000000                     _ADPREL	set	16118
   215   000000                     _ADCAP	set	16117
   216   000000                     _ADACQH	set	16116
   217   000000                     _ADPCH	set	16113
   218   000000                     _ADRPT	set	16108
   219   000000                     _ADACCU	set	16106
   220   000000                     _ADSTPTH	set	16101
   221   000000                     _ADSTPTL	set	16100
   222   000000                     _ADUTHH	set	16097
   223   000000                     _ADUTHL	set	16096
   224   000000                     _ADLTHH	set	16095
   225   000000                     _TRISD	set	16325
   226   000000                     _TRISC	set	16324
   227   000000                     _TRISB	set	16323
   228   000000                     _LATC	set	16316
   229   000000                     _LATB	set	16315
   230   001006                     STR_11:
   231                           
   232                           ; BSR set to: 62
   233   001006  72                 	db	114	;'r'
   234   001007  65                 	db	101	;'e'
   235   001008  61                 	db	97	;'a'
   236   001009  64                 	db	100	;'d'
   237   00100A  56                 	db	86	;'V'
   238   00100B  61                 	db	97	;'a'
   239   00100C  6C                 	db	108	;'l'
   240   00100D  2E                 	db	46
   241   00100E  76                 	db	118	;'v'
   242   00100F  61                 	db	97	;'a'
   243   001010  6C                 	db	108	;'l'
   244   001011  3D                 	db	61	;'='
   245   001012  30                 	db	48	;'0'
   246   001013  78                 	db	120	;'x'
   247   001014  00                 	db	0
   248   001015                     STR_10:
   249                           
   250                           ; BSR set to: 62
   251   001015  72                 	db	114	;'r'
   252   001016  65                 	db	101	;'e'
   253   001017  66                 	db	102	;'f'
   254   001018  72                 	db	114	;'r'
   255   001019  65                 	db	101	;'e'
   256   00101A  73                 	db	115	;'s'
   257   00101B  68                 	db	104	;'h'
   258   00101C  2E                 	db	46
   259   00101D  65                 	db	101	;'e'
   260   00101E  6E                 	db	110	;'n'
   261   00101F  3D                 	db	61	;'='
   262   001020  31                 	db	49	;'1'
   263   001021  00                 	db	0
   264   001022                     STR_5:
   265                           
   266                           ; BSR set to: 62
   267   001022  61                 	db	97	;'a'
   268   001023  64                 	db	100	;'d'
   269   001024  64                 	db	100	;'d'
   270   001025  20                 	db	32
   271   001026  31                 	db	49	;'1'
   272   001027  2C                 	db	44
   273   001028  30                 	db	48	;'0'
   274   001029  2C                 	db	44
   275   00102A  30                 	db	48	;'0'
   276   00102B  78                 	db	120	;'x'
   277   00102C  00                 	db	0
   278   00102D                     STR_6:
   279                           
   280                           ; BSR set to: 62
   281   00102D  61                 	db	97	;'a'
   282   00102E  64                 	db	100	;'d'
   283   00102F  64                 	db	100	;'d'
   284   001030  20                 	db	32
   285   001031  31                 	db	49	;'1'
   286   001032  2C                 	db	44
   287   001033  31                 	db	49	;'1'
   288   001034  2C                 	db	44
   289   001035  30                 	db	48	;'0'
   290   001036  78                 	db	120	;'x'
   291   001037  00                 	db	0
   292   001038                     STR_7:
   293                           
   294                           ; BSR set to: 62
   295   001038  73                 	db	115	;'s'
   296   001039  69                 	db	105	;'i'
   297   00103A  6E                 	db	110	;'n'
   298   00103B  2E                 	db	46
   299   00103C  76                 	db	118	;'v'
   300   00103D  61                 	db	97	;'a'
   301   00103E  6C                 	db	108	;'l'
   302   00103F  3D                 	db	61	;'='
   303   001040  30                 	db	48	;'0'
   304   001041  78                 	db	120	;'x'
   305   001042  00                 	db	0
   306   001043                     STR_8:
   307                           
   308                           ; BSR set to: 62
   309   001043  63                 	db	99	;'c'
   310   001044  6F                 	db	111	;'o'
   311   001045  73                 	db	115	;'s'
   312   001046  2E                 	db	46
   313   001047  76                 	db	118	;'v'
   314   001048  61                 	db	97	;'a'
   315   001049  6C                 	db	108	;'l'
   316   00104A  3D                 	db	61	;'='
   317   00104B  30                 	db	48	;'0'
   318   00104C  78                 	db	120	;'x'
   319   00104D  00                 	db	0
   320   00104E                     STR_9:
   321                           
   322                           ; BSR set to: 62
   323   00104E  72                 	db	114	;'r'
   324   00104F  65                 	db	101	;'e'
   325   001050  66                 	db	102	;'f'
   326   001051  20                 	db	32
   327   001052  70                 	db	112	;'p'
   328   001053  61                 	db	97	;'a'
   329   001054  67                 	db	103	;'g'
   330   001055  65                 	db	101	;'e'
   331   001056  33                 	db	51	;'3'
   332   001057  00                 	db	0
   333   001058                     STR_1:
   334                           
   335                           ; BSR set to: 62
   336   001058  70                 	db	112	;'p'
   337   001059  72                 	db	114	;'r'
   338   00105A  69                 	db	105	;'i'
   339   00105B  6E                 	db	110	;'n'
   340   00105C  74                 	db	116	;'t'
   341   00105D  20                 	db	32
   342   00105E  64                 	db	100	;'d'
   343   00105F  70                 	db	112	;'p'
   344   001060  00                 	db	0
   345   001061  00                 	db	0	; dummy byte at the end
   346   000000                     
   347                           	psect	nvCOMRAM
   348   00004C                     __pnvCOMRAM:
   349                           	callstack 0
   350   00004C                     _UART1_FramingErrorHandler:
   351                           	callstack 0
   352   00004C                     	ds	2
   353   00004E                     _UART1_TxInterruptHandler:
   354                           	callstack 0
   355   00004E                     	ds	2
   356   000050                     _UART1_RxInterruptHandler:
   357                           	callstack 0
   358   000050                     	ds	2
   359                           
   360                           	psect	nvBANK1
   361   0001DB                     __pnvBANK1:
   362                           	callstack 0
   363   0001DB                     _TMR4_InterruptHandler:
   364                           	callstack 0
   365   0001DB                     	ds	2
   366   0001DD                     _TMR2_InterruptHandler:
   367                           	callstack 0
   368   0001DD                     	ds	2
   369   0001DF                     _UART1_ErrorHandler:
   370                           	callstack 0
   371   0001DF                     	ds	2
   372   0001E1                     _UART1_OverrunErrorHandler:
   373                           	callstack 0
   374   0001E1                     	ds	2
   375   000000                     _U1ERRIRbits	set	15865
   376   000000                     _SPI1CON0bits	set	15636
   377   000000                     _ADCON1bits	set	16121
   378   000000                     _ADSTATbits	set	16124
   379   000000                     _ADCON2bits	set	16122
   380   000000                     _ADCON3bits	set	16123
   381   000000                     _ADCON0bits	set	16120
   382   000000                     _FVRCONbits	set	16065
   383   000000                     _LATCbits	set	16316
   384   000000                     _PR4	set	16287
   385   000000                     _TMR4	set	16286
   386   000000                     _T4CONbits	set	16288
   387   000000                     _T4RSTbits	set	16291
   388   000000                     _T4HLTbits	set	16289
   389   000000                     _LATDbits	set	16317
   390   000000                     _PR2	set	16299
   391   000000                     _TMR2	set	16298
   392   000000                     _T2CONbits	set	16300
   393   000000                     _T2RSTbits	set	16303
   394   000000                     _T2HLTbits	set	16301
   395   000000                     _TRISCbits	set	16324
   396   000000                     _PIE3bits	set	14739
   397   000000                     _PIR2bits	set	14754
   398   000000                     _RC3PPS	set	14867
   399   000000                     _ANSELA	set	14912
   400   000000                     _ANSELB	set	14928
   401   000000                     _ANSELC	set	14944
   402   000000                     _ANSELD	set	14960
   403   000000                     _FVRCON	set	16065
   404   000000                     _ADLTHL	set	16094
   405   000000                     _LATA	set	16314
   406   000000                     _LATD	set	16317
   407   000000                     _LATE	set	16318
   408   000000                     _TRISA	set	16322
   409   000000                     _TRISE	set	16326
   410   000000                     _INTCON0bits	set	16338
   411   000000                     _INLVLD	set	14964
   412   000000                     _SLRCOND	set	14963
   413   000000                     _ODCOND	set	14962
   414   000000                     _RD0I2C	set	14970
   415   000000                     _WPUD	set	14961
   416   000000                     _ANSELE	set	14976
   417   000000                     _INLVLC	set	14948
   418   000000                     _SLRCONC	set	14947
   419   000000                     _ODCONC	set	14946
   420   000000                     _RC3I2C	set	14954
   421   000000                     _WPUC	set	14945
   422   000000                     _INLVLB	set	14932
   423   000000                     _SLRCONB	set	14931
   424   000000                     _ODCONB	set	14930
   425   000000                     _RB1I2C	set	14938
   426   000000                     _WPUB	set	14929
   427   000000                     _SPI1SCKPPS	set	15070
   428   000000                     _INLVLE	set	14980
   429   000000                     _SLRCONE	set	14979
   430   000000                     _ODCONE	set	14978
   431   000000                     _WPUE	set	14977
   432   000000                     _INLVLA	set	14916
   433   000000                     _SLRCONA	set	14915
   434   000000                     _ODCONA	set	14914
   435   000000                     _WPUA	set	14913
   436   000000                     _RB2I2C	set	14939
   437   000000                     _RC4I2C	set	14955
   438   000000                     _RD1I2C	set	14971
   439   000000                     _SPI1SDIPPS	set	15071
   440   000000                     _U1RXPPS	set	15077
   441   000000                     _RC5PPS	set	14869
   442   000000                     _RC6PPS	set	14870
   443   000000                     _SPI1RXB	set	15632
   444   000000                     _SPI1TXB	set	15633
   445   000000                     _SPI1TCNTL	set	15634
   446   000000                     _SPI1CON0	set	15636
   447   000000                     _SPI1BAUD	set	15641
   448   000000                     _SPI1CLK	set	15644
   449   000000                     _SPI1CON2	set	15638
   450   000000                     _SPI1CON1	set	15637
   451   000000                     _U1RXB	set	15848
   452   000000                     _U1TXB	set	15850
   453   000000                     _U1P1L	set	15852
   454   000000                     _PIR4bits	set	14756
   455   000000                     _PIR7bits	set	14759
   456   000000                     _PIR3bits	set	14755
   457   000000                     _ADACQL	set	16115
   458   000000                     _T4TMR	set	16286
   459   000000                     _T4PR	set	16287
   460   000000                     _T4HLT	set	16289
   461   000000                     _T4CLKCON	set	16290
   462   000000                     _T2TMR	set	16298
   463   000000                     _T2PR	set	16299
   464   000000                     _T2HLT	set	16301
   465   000000                     _T2CLKCON	set	16302
   466   000000                     _ADCLK	set	16127
   467   000000                     _ADACT	set	16126
   468   000000                     _ADREF	set	16125
   469   000000                     _ADSTAT	set	16124
   470   000000                     _ADCON3	set	16123
   471   000000                     _ADCON2	set	16122
   472   000000                     _PIE4bits	set	14740
   473   000000                     _PIE7bits	set	14743
   474   000000                     _U1ERRIE	set	15866
   475   000000                     _U1ERRIR	set	15865
   476   000000                     _U1UIR	set	15864
   477   000000                     _U1FIFO	set	15863
   478   000000                     _U1BRGH	set	15862
   479   000000                     _U1BRGL	set	15861
   480   000000                     _U1CON2	set	15860
   481   000000                     _U1CON1	set	15859
   482   000000                     _U1CON0	set	15858
   483   000000                     _U1P3H	set	15857
   484   000000                     _U1P3L	set	15856
   485   000000                     _U1P2H	set	15855
   486   000000                     _U1P2L	set	15854
   487   000000                     _U1P1H	set	15853
   488   000000                     _PMD0	set	14784
   489   000000                     _OSCCON1	set	14809
   490   000000                     _OSCCON3	set	14811
   491   000000                     _OSCEN	set	14813
   492   000000                     _PMD7	set	14791
   493   000000                     _PMD6	set	14790
   494   000000                     _PMD5	set	14789
   495   000000                     _PMD4	set	14788
   496   000000                     _PMD3	set	14787
   497   000000                     _PMD2	set	14786
   498   000000                     _PMD1	set	14785
   499   000000                     _T2RST	set	16303
   500   000000                     _T4RST	set	16291
   501                           
   502                           ; #config settings
   503                           
   504                           	psect	cinit
   505   0027C2                     __pcinit:
   506                           	callstack 0
   507   0027C2                     start_initialization:
   508                           	callstack 0
   509   0027C2                     __initialization:
   510                           	callstack 0
   511                           
   512                           ; Initialize objects allocated to BANK1 (64 bytes)
   513                           ; load TBLPTR registers with __pidataBANK1
   514   0027C2  0E74               	movlw	low __pidataBANK1
   515   0027C4  6EF6               	movwf	tblptrl,c
   516   0027C6  0E2C               	movlw	high __pidataBANK1
   517   0027C8  6EF7               	movwf	tblptrh,c
   518   0027CA  0E00               	movlw	low (__pidataBANK1 shr (0+16))
   519   0027CC  6EF8               	movwf	tblptru,c
   520   0027CE  EE00  F19B         	lfsr	0,__pdataBANK1
   521   0027D2  EE10 F040          	lfsr	1,64
   522   0027D6                     copy_data0:
   523   0027D6  0009               	tblrd		*+
   524   0027D8  006F FFD7 FFEE     	movff	tablat,postinc0
   525   0027DE  50E5               	movf	postdec1,w,c
   526   0027E0  50E1               	movf	fsr1l,w,c
   527   0027E2  E1F9               	bnz	copy_data0
   528                           
   529                           ; Initialize objects allocated to BANK0 (4 bytes)
   530                           ; load TBLPTR registers with __pidataBANK0
   531   0027E4  0E96               	movlw	low __pidataBANK0
   532   0027E6  6EF6               	movwf	tblptrl,c
   533   0027E8  0E2E               	movlw	high __pidataBANK0
   534   0027EA  6EF7               	movwf	tblptrh,c
   535   0027EC  0E00               	movlw	low (__pidataBANK0 shr (0+16))
   536   0027EE  6EF8               	movwf	tblptru,c
   537   0027F0  EE00  F0B8         	lfsr	0,__pdataBANK0
   538   0027F4  EE10 F004          	lfsr	1,4
   539   0027F8                     copy_data1:
   540   0027F8  0009               	tblrd		*+
   541   0027FA  006F FFD7 FFEE     	movff	tablat,postinc0
   542   002800  50E5               	movf	postdec1,w,c
   543   002802  50E1               	movf	fsr1l,w,c
   544   002804  E1F9               	bnz	copy_data1
   545                           
   546                           ; Initialize objects allocated to COMRAM (2 bytes)
   547                           ; load TBLPTR registers with __pidataCOMRAM
   548   002806  0E9E               	movlw	low __pidataCOMRAM
   549   002808  6EF6               	movwf	tblptrl,c
   550   00280A  0E2E               	movlw	high __pidataCOMRAM
   551   00280C  6EF7               	movwf	tblptrh,c
   552   00280E  0E00               	movlw	low (__pidataCOMRAM shr (0+16))
   553   002810  6EF8               	movwf	tblptru,c
   554   002812  0009               	tblrd		*+	;fetch initializer
   555   002814  006F FFD4  F052    	movff	tablat,__pdataCOMRAM
   556   00281A  0009               	tblrd		*+	;fetch initializer
   557   00281C  006F FFD4  F053    	movff	tablat,__pdataCOMRAM+1
   558                           
   559                           ; Clear objects allocated to BANK2 (206 bytes)
   560   002822  EE00  F200         	lfsr	0,__pbssBANK2
   561   002826  0ECE               	movlw	206
   562   002828                     clear_0:
   563   002828  6AEE               	clrf	postinc0,c
   564   00282A  06E8               	decf	wreg,f,c
   565   00282C  E1FD               	bnz	clear_0
   566                           
   567                           ; Clear objects allocated to BANK1 (77 bytes)
   568   00282E  EE00  F14E         	lfsr	0,__pbssBANK1
   569   002832  0E4D               	movlw	77
   570   002834                     clear_1:
   571   002834  6AEE               	clrf	postinc0,c
   572   002836  06E8               	decf	wreg,f,c
   573   002838  E1FD               	bnz	clear_1
   574                           
   575                           ; Clear objects allocated to BANK0 (77 bytes)
   576   00283A  EE00  F060         	lfsr	0,__pbssBANK0
   577   00283E  0E4D               	movlw	77
   578   002840                     clear_2:
   579   002840  6AEE               	clrf	postinc0,c
   580   002842  06E8               	decf	wreg,f,c
   581   002844  E1FD               	bnz	clear_2
   582                           
   583                           ; Clear objects allocated to COMRAM (25 bytes)
   584   002846  EE00  F033         	lfsr	0,__pbssCOMRAM
   585   00284A  0E19               	movlw	25
   586   00284C                     clear_3:
   587   00284C  6AEE               	clrf	postinc0,c
   588   00284E  06E8               	decf	wreg,f,c
   589   002850  E1FD               	bnz	clear_3
   590                           
   591                           ;
   592                           ; Setup IVTBASE
   593                           ;
   594   002852  0E08               	movlw	(ivt0x8_base shr 0)& (0+255)
   595   002854  6ED5               	movwf	213,c
   596   002856  0E00               	movlw	(ivt0x8_base shr (0+8))& (0+255)
   597   002858  6ED6               	movwf	214,c
   598   00285A  0E00               	movlw	(ivt0x8_base shr (0+16))& (0+255)
   599   00285C  6ED7               	movwf	215,c
   600   00285E                     end_of_initialization:
   601                           	callstack 0
   602   00285E                     __end_of__initialization:
   603                           	callstack 0
   604   00285E  0100               	movlb	0
   605   002860  EF31  F008         	goto	_main	;jump to C main() function
   606                           
   607                           	psect	bssCOMRAM
   608   000033                     __pbssCOMRAM:
   609                           	callstack 0
   610   000033                     _state_send_final_0:
   611                           	callstack 0
   612   000033                     	ds	2
   613   000035                     _state_get_gain:
   614                           	callstack 0
   615   000035                     	ds	2
   616   000037                     _state_get_page:
   617                           	callstack 0
   618   000037                     	ds	2
   619   000039                     _final_result_send_1:
   620                           	callstack 0
   621   000039                     	ds	2
   622   00003B                     _final_result_send_0:
   623                           	callstack 0
   624   00003B                     	ds	2
   625   00003D                     TMR2_ISR@counter:
   626                           	callstack 0
   627   00003D                     	ds	2
   628   00003F                     _adc_1:
   629                           	callstack 0
   630   00003F                     	ds	2
   631   000041                     _adc_0:
   632                           	callstack 0
   633   000041                     	ds	2
   634   000043                     _timerINT:
   635                           	callstack 0
   636   000043                     	ds	1
   637   000044                     TMR2_ISR@state:
   638                           	callstack 0
   639   000044                     	ds	1
   640   000045                     _uart1RxLastError:
   641                           	callstack 0
   642   000045                     	ds	1
   643   000046                     _uart1RxCount:
   644                           	callstack 0
   645   000046                     	ds	1
   646   000047                     _uart1RxTail:
   647                           	callstack 0
   648   000047                     	ds	1
   649   000048                     _uart1RxHead:
   650                           	callstack 0
   651   000048                     	ds	1
   652   000049                     _uart1TxBufferRemaining:
   653                           	callstack 0
   654   000049                     	ds	1
   655   00004A                     _uart1TxTail:
   656                           	callstack 0
   657   00004A                     	ds	1
   658   00004B                     _uart1TxHead:
   659                           	callstack 0
   660   00004B                     	ds	1
   661                           
   662                           	psect	dataCOMRAM
   663   000052                     __pdataCOMRAM:
   664                           	callstack 0
   665   000052                     _eusart1:
   666                           	callstack 0
   667   000052                     	ds	2
   668                           
   669                           	psect	bssBANK0
   670   000060                     __pbssBANK0:
   671                           	callstack 0
   672   000060                     _num_page:
   673                           	callstack 0
   674   000060                     	ds	8
   675   000068                     _uart1RxStatusBuffer:
   676                           	callstack 0
   677   000068                     	ds	8
   678   000070                     _uart1RxBuffer:
   679                           	callstack 0
   680   000070                     	ds	8
   681   000078                     _uart1TxBuffer:
   682                           	callstack 0
   683   000078                     	ds	8
   684   000080                     	ds	4
   685   000084                     _sent_fifo:
   686                           	callstack 0
   687   000084                     	ds	4
   688   000088                     _adc_1_acc:
   689                           	callstack 0
   690   000088                     	ds	4
   691   00008C                     _adc_0_acc:
   692                           	callstack 0
   693   00008C                     	ds	4
   694   000090                     _pos_num_page:
   695                           	callstack 0
   696   000090                     	ds	2
   697   000092                     _send_fifo:
   698                           	callstack 0
   699   000092                     	ds	2
   700   000094                     _send_gain:
   701                           	callstack 0
   702   000094                     	ds	2
   703   000096                     _ask_gain:
   704                           	callstack 0
   705   000096                     	ds	2
   706   000098                     _avg_adc_1:
   707                           	callstack 0
   708   000098                     	ds	2
   709   00009A                     _avg_adc_0:
   710                           	callstack 0
   711   00009A                     	ds	2
   712   00009C                     _ref_1:
   713                           	callstack 0
   714   00009C                     	ds	2
   715   00009E                     _ref_0:
   716                           	callstack 0
   717   00009E                     	ds	2
   718   0000A0                     _final_result_1:
   719                           	callstack 0
   720   0000A0                     	ds	2
   721   0000A2                     _final_result_0:
   722                           	callstack 0
   723   0000A2                     	ds	2
   724   0000A4                     _ask_page:
   725                           	callstack 0
   726   0000A4                     	ds	2
   727   0000A6                     _flag_meas_acc:
   728                           	callstack 0
   729   0000A6                     	ds	2
   730   0000A8                     _gain:
   731                           	callstack 0
   732   0000A8                     	ds	1
   733   0000A9                     _flag_sim:
   734                           	callstack 0
   735   0000A9                     	ds	1
   736   0000AA                     _send_result:
   737                           	callstack 0
   738   0000AA                     	ds	3
   739                           
   740                           	psect	dataBANK0
   741   0000B8                     __pdataBANK0:
   742                           	callstack 0
   743   0000B8                     _send_Fs:
   744                           	callstack 0
   745   0000B8                     	ds	4
   746                           
   747                           	psect	bssBANK1
   748   00014E                     __pbssBANK1:
   749                           	callstack 0
   750   00014E                     	ds	32
   751   00016E                     	ds	32
   752   00018E                     _num_gain:
   753                           	callstack 0
   754   00018E                     	ds	8
   755   000196                     	ds	5
   756                           
   757                           	psect	dataBANK1
   758   00019B                     __pdataBANK1:
   759                           	callstack 0
   760   00019B                     categorize_number@F16940:
   761                           	callstack 0
   762   00019B                     	ds	16
   763   0001AB                     _FIR_num:
   764                           	callstack 0
   765   0001AB                     	ds	32
   766   0001CB                     _FIR_num_sim:
   767                           	callstack 0
   768   0001CB                     	ds	16
   769                           
   770                           	psect	bssBANK2
   771   000200                     __pbssBANK2:
   772                           	callstack 0
   773   000200                     _struct_eusart1:
   774                           	callstack 0
   775   000200                     	ds	206
   776                           
   777                           	psect	cstackBANK1
   778   000100                     __pcstackBANK1:
   779                           	callstack 0
   780   000100                     main@digitos:
   781                           	callstack 0
   782                           
   783                           ; 4 bytes @ 0x0
   784   000100                     	ds	4
   785   000104                     main@in_values_0:
   786                           	callstack 0
   787                           
   788                           ; 32 bytes @ 0x4
   789   000104                     	ds	32
   790   000124                     main@in_values_1:
   791                           	callstack 0
   792                           
   793                           ; 32 bytes @ 0x24
   794   000124                     	ds	32
   795   000144                     main@pt_in_values_0:
   796                           	callstack 0
   797                           
   798                           ; 2 bytes @ 0x44
   799   000144                     	ds	2
   800   000146                     main@pt_in_values_1:
   801                           	callstack 0
   802                           
   803                           ; 2 bytes @ 0x46
   804   000146                     	ds	2
   805   000148                     main@pt_FIR_num_sim:
   806                           	callstack 0
   807                           
   808                           ; 2 bytes @ 0x48
   809   000148                     	ds	2
   810   00014A                     main@num16_0:
   811                           	callstack 0
   812                           
   813                           ; 2 bytes @ 0x4A
   814   00014A                     	ds	2
   815   00014C                     main@num16_1:
   816                           	callstack 0
   817                           
   818                           ; 2 bytes @ 0x4C
   819   00014C                     	ds	2
   820                           
   821                           	psect	cstackBANK0
   822   0000AD                     __pcstackBANK0:
   823                           	callstack 0
   824   0000AD                     FIR_pointer_sim@resp:
   825                           	callstack 0
   826                           
   827                           ; 4 bytes @ 0x0
   828   0000AD                     	ds	4
   829   0000B1                     FIR_pointer_sim@i:
   830                           	callstack 0
   831                           
   832                           ; 2 bytes @ 0x4
   833   0000B1                     	ds	2
   834   0000B3                     ??_main:
   835                           
   836                           ; 1 bytes @ 0x6
   837   0000B3                     	ds	5
   838                           
   839                           	psect	cstackCOMRAM
   840   000001                     __pcstackCOMRAM:
   841                           	callstack 0
   842   000001                     ?_ADCC_GetSingleConversion:
   843                           	callstack 0
   844                           
   845                           ; 2 bytes @ 0x0
   846   000001                     	ds	2
   847   000003                     ??_ADCC_GetSingleConversion:
   848                           
   849                           ; 1 bytes @ 0x2
   850   000003                     	ds	2
   851   000005                     ADCC_GetSingleConversion@channel:
   852                           	callstack 0
   853                           
   854                           ; 1 bytes @ 0x4
   855   000005                     	ds	1
   856   000006                     ??_TMR2_ISR:
   857                           
   858                           ; 1 bytes @ 0x5
   859   000006                     	ds	2
   860   000008                     ??_INTERRUPT_InterruptManager:
   861                           
   862                           ; 1 bytes @ 0x7
   863   000008                     	ds	2
   864   00000A                     ??_SPI1_Open:
   865   00000A                     ?_abs_16:
   866                           	callstack 0
   867   00000A                     ?___lmul:
   868                           	callstack 0
   869   00000A                     SPI1_ExchangeByte@data:
   870                           	callstack 0
   871   00000A                     UART1_Read@readValue:
   872                           	callstack 0
   873   00000A                     UART1_Write@txData:
   874                           	callstack 0
   875   00000A                     categorize_number@sec:
   876                           	callstack 0
   877   00000A                     UART1_SetFramingErrorHandler@interruptHandler:
   878                           	callstack 0
   879   00000A                     UART1_SetOverrunErrorHandler@interruptHandler:
   880                           	callstack 0
   881   00000A                     UART1_SetErrorHandler@interruptHandler:
   882                           	callstack 0
   883   00000A                     UART1_SetRxInterruptHandler@InterruptHandler:
   884                           	callstack 0
   885   00000A                     UART1_SetTxInterruptHandler@InterruptHandler:
   886                           	callstack 0
   887   00000A                     TMR2_SetInterruptHandler@InterruptHandler:
   888                           	callstack 0
   889   00000A                     TMR4_SetInterruptHandler@InterruptHandler:
   890                           	callstack 0
   891   00000A                     reorder_array_pt@arr:
   892                           	callstack 0
   893   00000A                     abs_16@num:
   894                           	callstack 0
   895   00000A                     checkBoundaries@targetFIFO:
   896                           	callstack 0
   897   00000A                     statusFIFO@targetFIFO:
   898                           	callstack 0
   899   00000A                     InitializeFIFO@targetFIFO:
   900                           	callstack 0
   901   00000A                     ___lmul@multiplier:
   902                           	callstack 0
   903                           
   904                           ; 4 bytes @ 0x9
   905   00000A                     	ds	1
   906   00000B                     ??_get_page:
   907   00000B                     ??_get_gain:
   908   00000B                     ??_categorize_number:
   909   00000B                     SPI1_Open@spi1UniqueConfiguration:
   910                           	callstack 0
   911   00000B                     send_uart@str:
   912                           	callstack 0
   913                           
   914                           ; 2 bytes @ 0xA
   915   00000B                     	ds	1
   916   00000C                     ??_abs_16:
   917   00000C                     reorder_array_pt@array_size:
   918                           	callstack 0
   919   00000C                     checkBoundaries@bufferPointer:
   920                           	callstack 0
   921   00000C                     categorize_number@asciiValues:
   922                           	callstack 0
   923                           
   924                           ; 16 bytes @ 0xB
   925   00000C                     	ds	1
   926   00000D                     send_uart@size:
   927                           	callstack 0
   928                           
   929                           ; 2 bytes @ 0xC
   930   00000D                     	ds	1
   931   00000E                     ??_reorder_array_pt:
   932   00000E                     ??_checkBoundaries:
   933   00000E                     abs_16@resp:
   934                           	callstack 0
   935   00000E                     ___lmul@multiplicand:
   936                           	callstack 0
   937                           
   938                           ; 4 bytes @ 0xD
   939   00000E                     	ds	1
   940   00000F                     ??_send_uart:
   941                           
   942                           ; 1 bytes @ 0xE
   943   00000F                     	ds	2
   944   000011                     send_uart@i:
   945                           	callstack 0
   946                           
   947                           ; 2 bytes @ 0x10
   948   000011                     	ds	1
   949   000012                     reorder_array_pt@ptr:
   950                           	callstack 0
   951   000012                     pushString@targetFIFO:
   952                           	callstack 0
   953   000012                     popData@targetFIFO:
   954                           	callstack 0
   955   000012                     ___lmul@product:
   956                           	callstack 0
   957                           
   958                           ; 4 bytes @ 0x11
   959   000012                     	ds	2
   960   000014                     ??_popData:
   961   000014                     reorder_array_pt@i:
   962                           	callstack 0
   963   000014                     pushString@newString:
   964                           	callstack 0
   965                           
   966                           ; 2 bytes @ 0x13
   967   000014                     	ds	2
   968   000016                     ??_pushString:
   969   000016                     ?_FIR_pointer_sim:
   970                           	callstack 0
   971   000016                     FIR_pointer_sim@in:
   972                           	callstack 0
   973                           
   974                           ; 2 bytes @ 0x15
   975   000016                     	ds	2
   976   000018                     popData@currentChar:
   977                           	callstack 0
   978   000018                     FIR_pointer_sim@num:
   979                           	callstack 0
   980                           
   981                           ; 2 bytes @ 0x17
   982   000018                     	ds	2
   983   00001A                     pushString@letterCounter:
   984                           	callstack 0
   985   00001A                     FIR_pointer_sim@size_in:
   986                           	callstack 0
   987                           
   988                           ; 2 bytes @ 0x19
   989   00001A                     	ds	2
   990   00001C                     categorize_number@ascii:
   991                           	callstack 0
   992   00001C                     FIR_pointer_sim@size_num:
   993                           	callstack 0
   994                           
   995                           ; 2 bytes @ 0x1B
   996   00001C                     	ds	1
   997   00001D                     categorize_number@real_val:
   998                           	callstack 0
   999                           
  1000                           ; 1 bytes @ 0x1C
  1001   00001D                     	ds	1
  1002   00001E                     FIR_pointer_sim@flag:
  1003                           	callstack 0
  1004   00001E                     _categorize_number$2024:
  1005                           	callstack 0
  1006                           
  1007                           ; 2 bytes @ 0x1D
  1008   00001E                     	ds	1
  1009   00001F                     ??_FIR_pointer_sim:
  1010                           
  1011                           ; 1 bytes @ 0x1E
  1012   00001F                     	ds	1
  1013   000020                     _categorize_number$2027:
  1014                           	callstack 0
  1015                           
  1016                           ; 2 bytes @ 0x1F
  1017   000020                     	ds	2
  1018   000022                     categorize_number@num:
  1019                           	callstack 0
  1020                           
  1021                           ; 1 bytes @ 0x21
  1022   000022                     	ds	1
  1023   000023                     categorize_number@mask:
  1024                           	callstack 0
  1025                           
  1026                           ; 1 bytes @ 0x22
  1027   000023                     	ds	16
  1028                           
  1029 ;;
  1030 ;;Main: autosize = 0, tempsize = 5, incstack = 0, save=0
  1031 ;;
  1032 ;; *************** function _main *****************
  1033 ;; Defined at:
  1034 ;;		line 108 in file "main.c"
  1035 ;; Parameters:    Size  Location     Type
  1036 ;;		None
  1037 ;; Auto vars:     Size  Location     Type
  1038 ;;  in_values_1    32   36[BANK1 ] short [16]
  1039 ;;  in_values_0    32    4[BANK1 ] short [16]
  1040 ;;  digitos         4    0[BANK1 ] unsigned char [4]
  1041 ;;  num16_1         2   76[BANK1 ] unsigned short 
  1042 ;;  num16_0         2   74[BANK1 ] unsigned short 
  1043 ;;  pt_FIR_num_s    2   72[BANK1 ] PTR short 
  1044 ;;		 -> FIR_num_sim(16), 
  1045 ;;  pt_in_values    2   70[BANK1 ] PTR short 
  1046 ;;		 -> main@in_values_1(32), 
  1047 ;;  pt_in_values    2   68[BANK1 ] PTR short 
  1048 ;;		 -> main@in_values_0(32), 
  1049 ;;  pt_FIR_num      2    0        PTR short 
  1050 ;;		 -> FIR_num(32), 
  1051 ;;  num             1    0        unsigned char 
  1052 ;; Return value:  Size  Location     Type
  1053 ;;                  1    wreg      void 
  1054 ;; Registers used:
  1055 ;;		wreg, fsr0l, fsr0h, fsr1l, fsr1h, fsr2l, fsr2h, status,2, status,0, tblptrl, tblptrh, tblptru, prodl, prodh, cstack
  1056 ;; Tracked objects:
  1057 ;;		On entry : 0/0
  1058 ;;		On exit  : 0/0
  1059 ;;		Unchanged: 0/0
  1060 ;; Data sizes:     COMRAM   BANK0   BANK1   BANK2   BANK3   BANK4   BANK5   BANK6   BANK7   BANK8   BANK9  BANK10  BANK1
      +1  BANK12  BANK13  BANK14  BANK15
  1061 ;;      Params:         0       0       0       0       0       0       0       0       0       0       0       0       
      +0       0       0       0       0
  1062 ;;      Locals:         0       0      78       0       0       0       0       0       0       0       0       0       
      +0       0       0       0       0
  1063 ;;      Temps:          0       5       0       0       0       0       0       0       0       0       0       0       
      +0       0       0       0       0
  1064 ;;      Totals:         0       5      78       0       0       0       0       0       0       0       0       0       
      +0       0       0       0       0
  1065 ;;Total ram usage:       83 bytes
  1066 ;; Hardware stack levels required when called: 7
  1067 ;; This function calls:
  1068 ;;		_FIR_pointer_sim
  1069 ;;		_InitializeFIFO
  1070 ;;		_SPI1_ExchangeByte
  1071 ;;		_SPI1_Open
  1072 ;;		_SYSTEM_Initialize
  1073 ;;		_UART1_Read
  1074 ;;		_UART1_Write
  1075 ;;		_abs_16
  1076 ;;		_categorize_number
  1077 ;;		_get_gain
  1078 ;;		_get_page
  1079 ;;		_popData
  1080 ;;		_pushString
  1081 ;;		_reorder_array_pt
  1082 ;;		_send_6F
  1083 ;;		_send_uart
  1084 ;;		_statusFIFO
  1085 ;; This function is called by:
  1086 ;;		Startup code after reset
  1087 ;; This function uses a non-reentrant model
  1088 ;;
  1089                           
  1090                           	psect	text0
  1091   001062                     __ptext0:
  1092                           	callstack 0
  1093   001062                     _main:
  1094                           	callstack 24
  1095   001062                     
  1096                           ;main.c: 111:     SYSTEM_Initialize();
  1097   001062  ECB5  F016         	call	_SYSTEM_Initialize	;wreg free
  1098   001066                     
  1099                           ;main.c: 114:     char digitos[4] = {};
  1100   001066  0E00               	movlw	0
  1101   001068  0101               	movlb	1	; () banked
  1102   00106A  6F00               	movwf	main@digitos& (0+255),b
  1103   00106C  0E00               	movlw	0
  1104   00106E  6F01               	movwf	(main@digitos+1)& (0+255),b
  1105   001070  0E00               	movlw	0
  1106   001072  6F02               	movwf	(main@digitos+2)& (0+255),b
  1107   001074  0E00               	movlw	0
  1108   001076  6F03               	movwf	(main@digitos+3)& (0+255),b
  1109   001078                     
  1110                           ; BSR set to: 1
  1111                           ;main.c: 117:     (INTCON0bits.GIE = 1);
  1112   001078  8ED2               	bsf	210,7,c	;volatile
  1113   00107A                     
  1114                           ; BSR set to: 1
  1115                           ;main.c: 119:     InitializeFIFO(eusart1);
  1116   00107A  0E00               	movlw	low _struct_eusart1
  1117   00107C  6E0A               	movwf	InitializeFIFO@targetFIFO^0,c
  1118   00107E  0E02               	movlw	high _struct_eusart1
  1119   001080  6E0B               	movwf	(InitializeFIFO@targetFIFO+1)^0,c
  1120   001082  ECCC  F015         	call	_InitializeFIFO	;wreg free
  1121   001086                     
  1122                           ;main.c: 121:     SPI1_Open(SPI1_DEFAULT);
  1123   001086  0E00               	movlw	0
  1124   001088  EC98  F011         	call	_SPI1_Open
  1125   00108C  84BC               	bsf	188,2,c	;volatile
  1126   00108E  94BC               	bcf	188,2,c	;volatile
  1127   001090                     
  1128                           ;main.c: 128:     SPI1_ExchangeByte(0x40);
  1129   001090  0E40               	movlw	64
  1130   001092  ECDC  F016         	call	_SPI1_ExchangeByte
  1131   001096                     
  1132                           ;main.c: 132:     SPI1_ExchangeByte(gain);
  1133   001096  0100               	movlb	0	; () banked
  1134   001098  51A8               	movf	_gain& (0+255),w,b
  1135   00109A  ECDC  F016         	call	_SPI1_ExchangeByte
  1136   00109E  84BC               	bsf	188,2,c	;volatile
  1137   0010A0                     
  1138                           ;main.c: 137:     int16_t in_values_0[16] = {};
  1139   0010A0  EE20  F104         	lfsr	2,main@in_values_0
  1140   0010A4  0E1F               	movlw	31
  1141   0010A6                     u3061:
  1142   0010A6  6ADE               	clrf	postinc2,c
  1143   0010A8  06E8               	decf	wreg,f,c
  1144   0010AA  E2FD               	bc	u3061
  1145   0010AC                     
  1146                           ;main.c: 138:     int16_t in_values_1[16] = {};
  1147   0010AC  EE20  F124         	lfsr	2,main@in_values_1
  1148   0010B0  0E1F               	movlw	31
  1149   0010B2                     u3071:
  1150   0010B2  6ADE               	clrf	postinc2,c
  1151   0010B4  06E8               	decf	wreg,f,c
  1152   0010B6  E2FD               	bc	u3071
  1153   0010B8                     
  1154                           ;main.c: 141:     int16_t *pt_in_values_0 = in_values_0;
  1155   0010B8  0E04               	movlw	low main@in_values_0
  1156   0010BA  0101               	movlb	1	; () banked
  1157   0010BC  6F44               	movwf	main@pt_in_values_0& (0+255),b
  1158   0010BE  0E01               	movlw	high main@in_values_0
  1159   0010C0  6F45               	movwf	(main@pt_in_values_0+1)& (0+255),b
  1160   0010C2                     
  1161                           ; BSR set to: 1
  1162                           ;main.c: 142:     int16_t *pt_in_values_1 = in_values_1;
  1163   0010C2  0E24               	movlw	low main@in_values_1
  1164   0010C4  6F46               	movwf	main@pt_in_values_1& (0+255),b
  1165   0010C6  0E01               	movlw	high main@in_values_1
  1166   0010C8  6F47               	movwf	(main@pt_in_values_1+1)& (0+255),b
  1167   0010CA                     
  1168                           ; BSR set to: 1
  1169                           ;main.c: 147:     int16_t *pt_FIR_num_sim = FIR_num_sim;
  1170   0010CA  0ECB               	movlw	low _FIR_num_sim
  1171   0010CC  6F48               	movwf	main@pt_FIR_num_sim& (0+255),b
  1172   0010CE  0E01               	movlw	high _FIR_num_sim
  1173   0010D0  6F49               	movwf	(main@pt_FIR_num_sim+1)& (0+255),b
  1174   0010D2                     
  1175                           ; BSR set to: 1
  1176                           ;main.c: 151:     uint16_t num16_1 = 0;
  1177   0010D2  0E00               	movlw	0
  1178   0010D4  6F4D               	movwf	(main@num16_1+1)& (0+255),b
  1179   0010D6  0E00               	movlw	0
  1180   0010D8  6F4C               	movwf	main@num16_1& (0+255),b
  1181   0010DA                     
  1182                           ; BSR set to: 1
  1183                           ;main.c: 153:     send_uart("print dp",8);
  1184   0010DA  0E58               	movlw	low STR_1
  1185   0010DC  6E0B               	movwf	send_uart@str^0,c
  1186   0010DE  0E10               	movlw	high STR_1
  1187   0010E0  6E0C               	movwf	(send_uart@str+1)^0,c
  1188   0010E2  0E00               	movlw	0
  1189   0010E4  6E0E               	movwf	(send_uart@size+1)^0,c
  1190   0010E6  0E08               	movlw	8
  1191   0010E8  6E0D               	movwf	send_uart@size^0,c
  1192   0010EA  EC7A  F015         	call	_send_uart	;wreg free
  1193   0010EE                     
  1194                           ;main.c: 154:     send_6F();
  1195   0010EE  EC07  F017         	call	_send_6F	;wreg free
  1196   0010F2                     
  1197                           ;main.c: 155:     send_uart("print dp",8);
  1198   0010F2  0E58               	movlw	low STR_1
  1199   0010F4  6E0B               	movwf	send_uart@str^0,c
  1200   0010F6  0E10               	movlw	high STR_1
  1201   0010F8  6E0C               	movwf	(send_uart@str+1)^0,c
  1202   0010FA  0E00               	movlw	0
  1203   0010FC  6E0E               	movwf	(send_uart@size+1)^0,c
  1204   0010FE  0E08               	movlw	8
  1205   001100  6E0D               	movwf	send_uart@size^0,c
  1206   001102  EC7A  F015         	call	_send_uart	;wreg free
  1207   001106                     
  1208                           ;main.c: 156:     send_6F();
  1209   001106  EC07  F017         	call	_send_6F	;wreg free
  1210   00110A                     
  1211                           ;main.c: 157:     send_uart("print dp",8);
  1212   00110A  0E58               	movlw	low STR_1
  1213   00110C  6E0B               	movwf	send_uart@str^0,c
  1214   00110E  0E10               	movlw	high STR_1
  1215   001110  6E0C               	movwf	(send_uart@str+1)^0,c
  1216   001112  0E00               	movlw	0
  1217   001114  6E0E               	movwf	(send_uart@size+1)^0,c
  1218   001116  0E08               	movlw	8
  1219   001118  6E0D               	movwf	send_uart@size^0,c
  1220   00111A  EC7A  F015         	call	_send_uart	;wreg free
  1221   00111E                     
  1222                           ;main.c: 158:     send_6F();
  1223   00111E  EC07  F017         	call	_send_6F	;wreg free
  1224   001122                     
  1225                           ;main.c: 159:     send_uart("print dp",8);
  1226   001122  0E58               	movlw	low STR_1
  1227   001124  6E0B               	movwf	send_uart@str^0,c
  1228   001126  0E10               	movlw	high STR_1
  1229   001128  6E0C               	movwf	(send_uart@str+1)^0,c
  1230   00112A  0E00               	movlw	0
  1231   00112C  6E0E               	movwf	(send_uart@size+1)^0,c
  1232   00112E  0E08               	movlw	8
  1233   001130  6E0D               	movwf	send_uart@size^0,c
  1234   001132  EC7A  F015         	call	_send_uart	;wreg free
  1235   001136                     
  1236                           ;main.c: 160:     send_6F();
  1237   001136  EC07  F017         	call	_send_6F	;wreg free
  1238   00113A                     l4659:
  1239                           
  1240                           ;main.c: 163:     {;main.c: 164:         if(flag_meas_acc == 1)
  1241   00113A  0100               	movlb	0	; () banked
  1242   00113C  05A6               	decf	_flag_meas_acc& (0+255),w,b
  1243   00113E  11A7               	iorwf	(_flag_meas_acc+1)& (0+255),w,b
  1244   001140  A4D8               	btfss	status,2,c
  1245   001142  EFA5  F008         	goto	u3081
  1246   001146  EFA7  F008         	goto	u3080
  1247   00114A                     u3081:
  1248   00114A  EF89  F00D         	goto	l4899
  1249   00114E                     u3080:
  1250   00114E                     
  1251                           ; BSR set to: 0
  1252                           ;main.c: 165:         {;main.c: 166:             flag_meas_acc = 0;
  1253   00114E  0E00               	movlw	0
  1254   001150  6FA7               	movwf	(_flag_meas_acc+1)& (0+255),b
  1255   001152  0E00               	movlw	0
  1256   001154  6FA6               	movwf	_flag_meas_acc& (0+255),b
  1257   001156                     
  1258                           ; BSR set to: 0
  1259                           ;main.c: 167:             avg_adc_0 = (int16_t)(adc_0_acc >> 6);
  1260   001156  0E06               	movlw	6
  1261   001158  6FB3               	movwf	??_main& (0+255),b
  1262   00115A  C08C  F0B4         	movff	_adc_0_acc,??_main+1
  1263   00115E  C08D  F0B5         	movff	_adc_0_acc+1,??_main+2
  1264   001162  C08E  F0B6         	movff	_adc_0_acc+2,??_main+3
  1265   001166  C08F  F0B7         	movff	_adc_0_acc+3,??_main+4
  1266   00116A                     u3095:
  1267   00116A  67B3               	tstfsz	??_main& (0+255),b
  1268   00116C  EFBA  F008         	goto	u3096
  1269   001170  EFC2  F008         	goto	u3097
  1270   001174                     u3096:
  1271   001174  35B7               	rlcf	(??_main+4)& (0+255),w,b
  1272   001176  33B7               	rrcf	(??_main+4)& (0+255),f,b
  1273   001178  33B6               	rrcf	(??_main+3)& (0+255),f,b
  1274   00117A  33B5               	rrcf	(??_main+2)& (0+255),f,b
  1275   00117C  33B4               	rrcf	(??_main+1)& (0+255),f,b
  1276   00117E  2FB3               	decfsz	??_main& (0+255),f,b
  1277   001180  EFB5  F008         	goto	u3095
  1278   001184                     u3097:
  1279   001184  C0B4  F09A         	movff	??_main+1,_avg_adc_0
  1280   001188  C0B5  F09B         	movff	??_main+2,_avg_adc_0+1
  1281   00118C                     
  1282                           ;main.c: 168:             avg_adc_1 = (int16_t)(adc_1_acc >> 6);
  1283   00118C  0E06               	movlw	6
  1284   00118E  0100               	movlb	0	; () banked
  1285   001190  6FB3               	movwf	??_main& (0+255),b
  1286   001192  C088  F0B4         	movff	_adc_1_acc,??_main+1
  1287   001196  C089  F0B5         	movff	_adc_1_acc+1,??_main+2
  1288   00119A  C08A  F0B6         	movff	_adc_1_acc+2,??_main+3
  1289   00119E  C08B  F0B7         	movff	_adc_1_acc+3,??_main+4
  1290   0011A2                     u3105:
  1291   0011A2  67B3               	tstfsz	??_main& (0+255),b
  1292   0011A4  EFD6  F008         	goto	u3106
  1293   0011A8  EFDE  F008         	goto	u3107
  1294   0011AC                     u3106:
  1295   0011AC  35B7               	rlcf	(??_main+4)& (0+255),w,b
  1296   0011AE  33B7               	rrcf	(??_main+4)& (0+255),f,b
  1297   0011B0  33B6               	rrcf	(??_main+3)& (0+255),f,b
  1298   0011B2  33B5               	rrcf	(??_main+2)& (0+255),f,b
  1299   0011B4  33B4               	rrcf	(??_main+1)& (0+255),f,b
  1300   0011B6  2FB3               	decfsz	??_main& (0+255),f,b
  1301   0011B8  EFD1  F008         	goto	u3105
  1302   0011BC                     u3107:
  1303   0011BC  C0B4  F098         	movff	??_main+1,_avg_adc_1
  1304   0011C0  C0B5  F099         	movff	??_main+2,_avg_adc_1+1
  1305                           
  1306                           ;main.c: 169:             adc_0_acc = 0;
  1307   0011C4  0E00               	movlw	0
  1308   0011C6  0100               	movlb	0	; () banked
  1309   0011C8  6F8C               	movwf	_adc_0_acc& (0+255),b
  1310   0011CA  0E00               	movlw	0
  1311   0011CC  6F8D               	movwf	(_adc_0_acc+1)& (0+255),b
  1312   0011CE  0E00               	movlw	0
  1313   0011D0  6F8E               	movwf	(_adc_0_acc+2)& (0+255),b
  1314   0011D2  0E00               	movlw	0
  1315   0011D4  6F8F               	movwf	(_adc_0_acc+3)& (0+255),b
  1316                           
  1317                           ;main.c: 170:             adc_1_acc = 0;
  1318   0011D6  0E00               	movlw	0
  1319   0011D8  6F88               	movwf	_adc_1_acc& (0+255),b
  1320   0011DA  0E00               	movlw	0
  1321   0011DC  6F89               	movwf	(_adc_1_acc+1)& (0+255),b
  1322   0011DE  0E00               	movlw	0
  1323   0011E0  6F8A               	movwf	(_adc_1_acc+2)& (0+255),b
  1324   0011E2  0E00               	movlw	0
  1325   0011E4  6F8B               	movwf	(_adc_1_acc+3)& (0+255),b
  1326   0011E6                     
  1327                           ; BSR set to: 0
  1328                           ;main.c: 173:             in_values_0[0] = (int16_t)(avg_adc_0);
  1329   0011E6  C09A  F104         	movff	_avg_adc_0,main@in_values_0
  1330   0011EA  C09B  F105         	movff	_avg_adc_0+1,main@in_values_0+1
  1331   0011EE                     
  1332                           ; BSR set to: 0
  1333                           ;main.c: 175:             final_result_0 = FIR_pointer_sim(pt_in_values_0,pt_FIR_num_sim
      +                          ,16,8,flag_sim);
  1334   0011EE  C144  F016         	movff	main@pt_in_values_0,FIR_pointer_sim@in
  1335   0011F2  C145  F017         	movff	main@pt_in_values_0+1,FIR_pointer_sim@in+1
  1336   0011F6  C148  F018         	movff	main@pt_FIR_num_sim,FIR_pointer_sim@num
  1337   0011FA  C149  F019         	movff	main@pt_FIR_num_sim+1,FIR_pointer_sim@num+1
  1338   0011FE  0E00               	movlw	0
  1339   001200  6E1B               	movwf	(FIR_pointer_sim@size_in+1)^0,c
  1340   001202  0E10               	movlw	16
  1341   001204  6E1A               	movwf	FIR_pointer_sim@size_in^0,c
  1342   001206  0E00               	movlw	0
  1343   001208  6E1D               	movwf	(FIR_pointer_sim@size_num+1)^0,c
  1344   00120A  0E08               	movlw	8
  1345   00120C  6E1C               	movwf	FIR_pointer_sim@size_num^0,c
  1346   00120E  0E00               	movlw	0
  1347   001210  6E1E               	movwf	FIR_pointer_sim@flag^0,c
  1348   001212  EC0F  F00E         	call	_FIR_pointer_sim	;wreg free
  1349   001216  C016  F0A2         	movff	?_FIR_pointer_sim,_final_result_0
  1350   00121A  C017  F0A3         	movff	?_FIR_pointer_sim+1,_final_result_0+1
  1351   00121E                     
  1352                           ;main.c: 177:             reorder_array_pt(pt_in_values_0,16);
  1353   00121E  C144  F00A         	movff	main@pt_in_values_0,reorder_array_pt@arr
  1354   001222  C145  F00B         	movff	main@pt_in_values_0+1,reorder_array_pt@arr+1
  1355   001226  0E00               	movlw	0
  1356   001228  6E0D               	movwf	(reorder_array_pt@array_size+1)^0,c
  1357   00122A  0E10               	movlw	16
  1358   00122C  6E0C               	movwf	reorder_array_pt@array_size^0,c
  1359   00122E  EC76  F014         	call	_reorder_array_pt	;wreg free
  1360   001232                     
  1361                           ;main.c: 180:             in_values_1[0] = (int16_t)(avg_adc_1);
  1362   001232  C098  F124         	movff	_avg_adc_1,main@in_values_1
  1363   001236  C099  F125         	movff	_avg_adc_1+1,main@in_values_1+1
  1364   00123A                     
  1365                           ;main.c: 182:             final_result_1 = FIR_pointer_sim(pt_in_values_1,pt_FIR_num_sim
      +                          ,16,8,flag_sim);
  1366   00123A  C146  F016         	movff	main@pt_in_values_1,FIR_pointer_sim@in
  1367   00123E  C147  F017         	movff	main@pt_in_values_1+1,FIR_pointer_sim@in+1
  1368   001242  C148  F018         	movff	main@pt_FIR_num_sim,FIR_pointer_sim@num
  1369   001246  C149  F019         	movff	main@pt_FIR_num_sim+1,FIR_pointer_sim@num+1
  1370   00124A  0E00               	movlw	0
  1371   00124C  6E1B               	movwf	(FIR_pointer_sim@size_in+1)^0,c
  1372   00124E  0E10               	movlw	16
  1373   001250  6E1A               	movwf	FIR_pointer_sim@size_in^0,c
  1374   001252  0E00               	movlw	0
  1375   001254  6E1D               	movwf	(FIR_pointer_sim@size_num+1)^0,c
  1376   001256  0E08               	movlw	8
  1377   001258  6E1C               	movwf	FIR_pointer_sim@size_num^0,c
  1378   00125A  0E00               	movlw	0
  1379   00125C  6E1E               	movwf	FIR_pointer_sim@flag^0,c
  1380   00125E  EC0F  F00E         	call	_FIR_pointer_sim	;wreg free
  1381   001262  C016  F0A0         	movff	?_FIR_pointer_sim,_final_result_1
  1382   001266  C017  F0A1         	movff	?_FIR_pointer_sim+1,_final_result_1+1
  1383   00126A                     
  1384                           ;main.c: 184:             reorder_array_pt(pt_in_values_1,16);
  1385   00126A  C146  F00A         	movff	main@pt_in_values_1,reorder_array_pt@arr
  1386   00126E  C147  F00B         	movff	main@pt_in_values_1+1,reorder_array_pt@arr+1
  1387   001272  0E00               	movlw	0
  1388   001274  6E0D               	movwf	(reorder_array_pt@array_size+1)^0,c
  1389   001276  0E10               	movlw	16
  1390   001278  6E0C               	movwf	reorder_array_pt@array_size^0,c
  1391   00127A  EC76  F014         	call	_reorder_array_pt	;wreg free
  1392   00127E                     
  1393                           ;main.c: 186:             if(ask_page == 1)
  1394   00127E  0100               	movlb	0	; () banked
  1395   001280  05A4               	decf	_ask_page& (0+255),w,b
  1396   001282  11A5               	iorwf	(_ask_page+1)& (0+255),w,b
  1397   001284  A4D8               	btfss	status,2,c
  1398   001286  EF47  F009         	goto	u3111
  1399   00128A  EF49  F009         	goto	u3110
  1400   00128E                     u3111:
  1401   00128E  EF4D  F009         	goto	l4683
  1402   001292                     u3110:
  1403   001292                     
  1404                           ; BSR set to: 0
  1405                           ;main.c: 187:             {;main.c: 188:                 get_page();
  1406   001292  ECB3  F00F         	call	_get_page	;wreg free
  1407                           
  1408                           ;main.c: 189:             }
  1409   001296  EF89  F00D         	goto	l4899
  1410   00129A                     l4683:
  1411                           
  1412                           ; BSR set to: 0
  1413   00129A  0596               	decf	_ask_gain& (0+255),w,b
  1414   00129C  1197               	iorwf	(_ask_gain+1)& (0+255),w,b
  1415   00129E  A4D8               	btfss	status,2,c
  1416   0012A0  EF54  F009         	goto	u3121
  1417   0012A4  EF56  F009         	goto	u3120
  1418   0012A8                     u3121:
  1419   0012A8  EF5A  F009         	goto	l4687
  1420   0012AC                     u3120:
  1421   0012AC                     
  1422                           ; BSR set to: 0
  1423                           ;main.c: 191:             {;main.c: 192:                 get_gain();
  1424   0012AC  EC65  F010         	call	_get_gain	;wreg free
  1425                           
  1426                           ;main.c: 193:             }
  1427   0012B0  EF89  F00D         	goto	l4899
  1428   0012B4                     l4687:
  1429                           
  1430                           ; BSR set to: 0
  1431   0012B4  0594               	decf	_send_gain& (0+255),w,b
  1432   0012B6  1195               	iorwf	(_send_gain+1)& (0+255),w,b
  1433   0012B8  A4D8               	btfss	status,2,c
  1434   0012BA  EF61  F009         	goto	u3131
  1435   0012BE  EF63  F009         	goto	u3130
  1436   0012C2                     u3131:
  1437   0012C2  EFD3  F00A         	goto	l4777
  1438   0012C6                     u3130:
  1439   0012C6                     
  1440                           ; BSR set to: 0
  1441                           ;main.c: 195:             {;main.c: 196:                 if((num_page[0] == 5) || (num_p
      +                          age[1] == 5) || (num_page[2] == 5) || (num_page[3] == 5))
  1442   0012C6  0E05               	movlw	5
  1443   0012C8  1960               	xorwf	_num_page& (0+255),w,b
  1444   0012CA  1161               	iorwf	(_num_page+1)& (0+255),w,b
  1445   0012CC  B4D8               	btfsc	status,2,c
  1446   0012CE  EF6B  F009         	goto	u3141
  1447   0012D2  EF6D  F009         	goto	u3140
  1448   0012D6                     u3141:
  1449   0012D6  EF8B  F009         	goto	l4697
  1450   0012DA                     u3140:
  1451   0012DA                     
  1452                           ; BSR set to: 0
  1453   0012DA  0E05               	movlw	5
  1454   0012DC  1962               	xorwf	(_num_page+2)& (0+255),w,b
  1455   0012DE  1163               	iorwf	(_num_page+3)& (0+255),w,b
  1456   0012E0  B4D8               	btfsc	status,2,c
  1457   0012E2  EF75  F009         	goto	u3151
  1458   0012E6  EF77  F009         	goto	u3150
  1459   0012EA                     u3151:
  1460   0012EA  EF8B  F009         	goto	l4697
  1461   0012EE                     u3150:
  1462   0012EE                     
  1463                           ; BSR set to: 0
  1464   0012EE  0E05               	movlw	5
  1465   0012F0  1964               	xorwf	(_num_page+4)& (0+255),w,b
  1466   0012F2  1165               	iorwf	(_num_page+5)& (0+255),w,b
  1467   0012F4  B4D8               	btfsc	status,2,c
  1468   0012F6  EF7F  F009         	goto	u3161
  1469   0012FA  EF81  F009         	goto	u3160
  1470   0012FE                     u3161:
  1471   0012FE  EF8B  F009         	goto	l4697
  1472   001302                     u3160:
  1473   001302                     
  1474                           ; BSR set to: 0
  1475   001302  0E05               	movlw	5
  1476   001304  1966               	xorwf	(_num_page+6)& (0+255),w,b
  1477   001306  1167               	iorwf	(_num_page+7)& (0+255),w,b
  1478   001308  A4D8               	btfss	status,2,c
  1479   00130A  EF89  F009         	goto	u3171
  1480   00130E  EF8B  F009         	goto	u3170
  1481   001312                     u3171:
  1482   001312  EF8F  F009         	goto	l4699
  1483   001316                     u3170:
  1484   001316                     l4697:
  1485                           
  1486                           ; BSR set to: 0
  1487                           ;main.c: 197:                 {;main.c: 198:                     gain = 0x00;
  1488   001316  0E00               	movlw	0
  1489   001318  6FA8               	movwf	_gain& (0+255),b
  1490                           
  1491                           ;main.c: 199:                 }
  1492   00131A  EFC3  F00A         	goto	l4769
  1493   00131E                     l4699:
  1494                           
  1495                           ; BSR set to: 0
  1496   00131E  0E06               	movlw	6
  1497   001320  1960               	xorwf	_num_page& (0+255),w,b
  1498   001322  1161               	iorwf	(_num_page+1)& (0+255),w,b
  1499   001324  B4D8               	btfsc	status,2,c
  1500   001326  EF97  F009         	goto	u3181
  1501   00132A  EF99  F009         	goto	u3180
  1502   00132E                     u3181:
  1503   00132E  EFB7  F009         	goto	l4707
  1504   001332                     u3180:
  1505   001332                     
  1506                           ; BSR set to: 0
  1507   001332  0E06               	movlw	6
  1508   001334  1962               	xorwf	(_num_page+2)& (0+255),w,b
  1509   001336  1163               	iorwf	(_num_page+3)& (0+255),w,b
  1510   001338  B4D8               	btfsc	status,2,c
  1511   00133A  EFA1  F009         	goto	u3191
  1512   00133E  EFA3  F009         	goto	u3190
  1513   001342                     u3191:
  1514   001342  EFB7  F009         	goto	l4707
  1515   001346                     u3190:
  1516   001346                     
  1517                           ; BSR set to: 0
  1518   001346  0E06               	movlw	6
  1519   001348  1964               	xorwf	(_num_page+4)& (0+255),w,b
  1520   00134A  1165               	iorwf	(_num_page+5)& (0+255),w,b
  1521   00134C  B4D8               	btfsc	status,2,c
  1522   00134E  EFAB  F009         	goto	u3201
  1523   001352  EFAD  F009         	goto	u3200
  1524   001356                     u3201:
  1525   001356  EFB7  F009         	goto	l4707
  1526   00135A                     u3200:
  1527   00135A                     
  1528                           ; BSR set to: 0
  1529   00135A  0E06               	movlw	6
  1530   00135C  1966               	xorwf	(_num_page+6)& (0+255),w,b
  1531   00135E  1167               	iorwf	(_num_page+7)& (0+255),w,b
  1532   001360  A4D8               	btfss	status,2,c
  1533   001362  EFB5  F009         	goto	u3211
  1534   001366  EFB7  F009         	goto	u3210
  1535   00136A                     u3211:
  1536   00136A  EFBB  F009         	goto	l4709
  1537   00136E                     u3210:
  1538   00136E                     l4707:
  1539                           
  1540                           ; BSR set to: 0
  1541                           ;main.c: 201:                 {;main.c: 202:                     gain = 0x01;
  1542   00136E  0E01               	movlw	1
  1543   001370  6FA8               	movwf	_gain& (0+255),b
  1544                           
  1545                           ;main.c: 203:                 }
  1546   001372  EFC3  F00A         	goto	l4769
  1547   001376                     l4709:
  1548                           
  1549                           ; BSR set to: 0
  1550   001376  0E07               	movlw	7
  1551   001378  1960               	xorwf	_num_page& (0+255),w,b
  1552   00137A  1161               	iorwf	(_num_page+1)& (0+255),w,b
  1553   00137C  B4D8               	btfsc	status,2,c
  1554   00137E  EFC3  F009         	goto	u3221
  1555   001382  EFC5  F009         	goto	u3220
  1556   001386                     u3221:
  1557   001386  EFE3  F009         	goto	l4717
  1558   00138A                     u3220:
  1559   00138A                     
  1560                           ; BSR set to: 0
  1561   00138A  0E07               	movlw	7
  1562   00138C  1962               	xorwf	(_num_page+2)& (0+255),w,b
  1563   00138E  1163               	iorwf	(_num_page+3)& (0+255),w,b
  1564   001390  B4D8               	btfsc	status,2,c
  1565   001392  EFCD  F009         	goto	u3231
  1566   001396  EFCF  F009         	goto	u3230
  1567   00139A                     u3231:
  1568   00139A  EFE3  F009         	goto	l4717
  1569   00139E                     u3230:
  1570   00139E                     
  1571                           ; BSR set to: 0
  1572   00139E  0E07               	movlw	7
  1573   0013A0  1964               	xorwf	(_num_page+4)& (0+255),w,b
  1574   0013A2  1165               	iorwf	(_num_page+5)& (0+255),w,b
  1575   0013A4  B4D8               	btfsc	status,2,c
  1576   0013A6  EFD7  F009         	goto	u3241
  1577   0013AA  EFD9  F009         	goto	u3240
  1578   0013AE                     u3241:
  1579   0013AE  EFE3  F009         	goto	l4717
  1580   0013B2                     u3240:
  1581   0013B2                     
  1582                           ; BSR set to: 0
  1583   0013B2  0E07               	movlw	7
  1584   0013B4  1966               	xorwf	(_num_page+6)& (0+255),w,b
  1585   0013B6  1167               	iorwf	(_num_page+7)& (0+255),w,b
  1586   0013B8  A4D8               	btfss	status,2,c
  1587   0013BA  EFE1  F009         	goto	u3251
  1588   0013BE  EFE3  F009         	goto	u3250
  1589   0013C2                     u3251:
  1590   0013C2  EFE7  F009         	goto	l4719
  1591   0013C6                     u3250:
  1592   0013C6                     l4717:
  1593                           
  1594                           ; BSR set to: 0
  1595                           ;main.c: 205:                 {;main.c: 206:                     gain = 0x02;
  1596   0013C6  0E02               	movlw	2
  1597   0013C8  6FA8               	movwf	_gain& (0+255),b
  1598                           
  1599                           ;main.c: 207:                 }
  1600   0013CA  EFC3  F00A         	goto	l4769
  1601   0013CE                     l4719:
  1602                           
  1603                           ; BSR set to: 0
  1604   0013CE  0E08               	movlw	8
  1605   0013D0  1960               	xorwf	_num_page& (0+255),w,b
  1606   0013D2  1161               	iorwf	(_num_page+1)& (0+255),w,b
  1607   0013D4  B4D8               	btfsc	status,2,c
  1608   0013D6  EFEF  F009         	goto	u3261
  1609   0013DA  EFF1  F009         	goto	u3260
  1610   0013DE                     u3261:
  1611   0013DE  EF0F  F00A         	goto	l4727
  1612   0013E2                     u3260:
  1613   0013E2                     
  1614                           ; BSR set to: 0
  1615   0013E2  0E08               	movlw	8
  1616   0013E4  1962               	xorwf	(_num_page+2)& (0+255),w,b
  1617   0013E6  1163               	iorwf	(_num_page+3)& (0+255),w,b
  1618   0013E8  B4D8               	btfsc	status,2,c
  1619   0013EA  EFF9  F009         	goto	u3271
  1620   0013EE  EFFB  F009         	goto	u3270
  1621   0013F2                     u3271:
  1622   0013F2  EF0F  F00A         	goto	l4727
  1623   0013F6                     u3270:
  1624   0013F6                     
  1625                           ; BSR set to: 0
  1626   0013F6  0E08               	movlw	8
  1627   0013F8  1964               	xorwf	(_num_page+4)& (0+255),w,b
  1628   0013FA  1165               	iorwf	(_num_page+5)& (0+255),w,b
  1629   0013FC  B4D8               	btfsc	status,2,c
  1630   0013FE  EF03  F00A         	goto	u3281
  1631   001402  EF05  F00A         	goto	u3280
  1632   001406                     u3281:
  1633   001406  EF0F  F00A         	goto	l4727
  1634   00140A                     u3280:
  1635   00140A                     
  1636                           ; BSR set to: 0
  1637   00140A  0E08               	movlw	8
  1638   00140C  1966               	xorwf	(_num_page+6)& (0+255),w,b
  1639   00140E  1167               	iorwf	(_num_page+7)& (0+255),w,b
  1640   001410  A4D8               	btfss	status,2,c
  1641   001412  EF0D  F00A         	goto	u3291
  1642   001416  EF0F  F00A         	goto	u3290
  1643   00141A                     u3291:
  1644   00141A  EF13  F00A         	goto	l4729
  1645   00141E                     u3290:
  1646   00141E                     l4727:
  1647                           
  1648                           ; BSR set to: 0
  1649                           ;main.c: 209:                 {;main.c: 210:                     gain = 0x03;
  1650   00141E  0E03               	movlw	3
  1651   001420  6FA8               	movwf	_gain& (0+255),b
  1652                           
  1653                           ;main.c: 211:                 }
  1654   001422  EFC3  F00A         	goto	l4769
  1655   001426                     l4729:
  1656                           
  1657                           ; BSR set to: 0
  1658   001426  0E09               	movlw	9
  1659   001428  1960               	xorwf	_num_page& (0+255),w,b
  1660   00142A  1161               	iorwf	(_num_page+1)& (0+255),w,b
  1661   00142C  B4D8               	btfsc	status,2,c
  1662   00142E  EF1B  F00A         	goto	u3301
  1663   001432  EF1D  F00A         	goto	u3300
  1664   001436                     u3301:
  1665   001436  EF3B  F00A         	goto	l4737
  1666   00143A                     u3300:
  1667   00143A                     
  1668                           ; BSR set to: 0
  1669   00143A  0E09               	movlw	9
  1670   00143C  1962               	xorwf	(_num_page+2)& (0+255),w,b
  1671   00143E  1163               	iorwf	(_num_page+3)& (0+255),w,b
  1672   001440  B4D8               	btfsc	status,2,c
  1673   001442  EF25  F00A         	goto	u3311
  1674   001446  EF27  F00A         	goto	u3310
  1675   00144A                     u3311:
  1676   00144A  EF3B  F00A         	goto	l4737
  1677   00144E                     u3310:
  1678   00144E                     
  1679                           ; BSR set to: 0
  1680   00144E  0E09               	movlw	9
  1681   001450  1964               	xorwf	(_num_page+4)& (0+255),w,b
  1682   001452  1165               	iorwf	(_num_page+5)& (0+255),w,b
  1683   001454  B4D8               	btfsc	status,2,c
  1684   001456  EF2F  F00A         	goto	u3321
  1685   00145A  EF31  F00A         	goto	u3320
  1686   00145E                     u3321:
  1687   00145E  EF3B  F00A         	goto	l4737
  1688   001462                     u3320:
  1689   001462                     
  1690                           ; BSR set to: 0
  1691   001462  0E09               	movlw	9
  1692   001464  1966               	xorwf	(_num_page+6)& (0+255),w,b
  1693   001466  1167               	iorwf	(_num_page+7)& (0+255),w,b
  1694   001468  A4D8               	btfss	status,2,c
  1695   00146A  EF39  F00A         	goto	u3331
  1696   00146E  EF3B  F00A         	goto	u3330
  1697   001472                     u3331:
  1698   001472  EF3F  F00A         	goto	l4739
  1699   001476                     u3330:
  1700   001476                     l4737:
  1701                           
  1702                           ; BSR set to: 0
  1703                           ;main.c: 213:                 {;main.c: 214:                     gain = 0x04;
  1704   001476  0E04               	movlw	4
  1705   001478  6FA8               	movwf	_gain& (0+255),b
  1706                           
  1707                           ;main.c: 215:                 }
  1708   00147A  EFC3  F00A         	goto	l4769
  1709   00147E                     l4739:
  1710                           
  1711                           ; BSR set to: 0
  1712   00147E  0E0A               	movlw	10
  1713   001480  1960               	xorwf	_num_page& (0+255),w,b
  1714   001482  1161               	iorwf	(_num_page+1)& (0+255),w,b
  1715   001484  B4D8               	btfsc	status,2,c
  1716   001486  EF47  F00A         	goto	u3341
  1717   00148A  EF49  F00A         	goto	u3340
  1718   00148E                     u3341:
  1719   00148E  EF67  F00A         	goto	l4747
  1720   001492                     u3340:
  1721   001492                     
  1722                           ; BSR set to: 0
  1723   001492  0E0A               	movlw	10
  1724   001494  1962               	xorwf	(_num_page+2)& (0+255),w,b
  1725   001496  1163               	iorwf	(_num_page+3)& (0+255),w,b
  1726   001498  B4D8               	btfsc	status,2,c
  1727   00149A  EF51  F00A         	goto	u3351
  1728   00149E  EF53  F00A         	goto	u3350
  1729   0014A2                     u3351:
  1730   0014A2  EF67  F00A         	goto	l4747
  1731   0014A6                     u3350:
  1732   0014A6                     
  1733                           ; BSR set to: 0
  1734   0014A6  0E0A               	movlw	10
  1735   0014A8  1964               	xorwf	(_num_page+4)& (0+255),w,b
  1736   0014AA  1165               	iorwf	(_num_page+5)& (0+255),w,b
  1737   0014AC  B4D8               	btfsc	status,2,c
  1738   0014AE  EF5B  F00A         	goto	u3361
  1739   0014B2  EF5D  F00A         	goto	u3360
  1740   0014B6                     u3361:
  1741   0014B6  EF67  F00A         	goto	l4747
  1742   0014BA                     u3360:
  1743   0014BA                     
  1744                           ; BSR set to: 0
  1745   0014BA  0E0A               	movlw	10
  1746   0014BC  1966               	xorwf	(_num_page+6)& (0+255),w,b
  1747   0014BE  1167               	iorwf	(_num_page+7)& (0+255),w,b
  1748   0014C0  A4D8               	btfss	status,2,c
  1749   0014C2  EF65  F00A         	goto	u3371
  1750   0014C6  EF67  F00A         	goto	u3370
  1751   0014CA                     u3371:
  1752   0014CA  EF6B  F00A         	goto	l4749
  1753   0014CE                     u3370:
  1754   0014CE                     l4747:
  1755                           
  1756                           ; BSR set to: 0
  1757                           ;main.c: 217:                 {;main.c: 218:                     gain = 0x05;
  1758   0014CE  0E05               	movlw	5
  1759   0014D0  6FA8               	movwf	_gain& (0+255),b
  1760                           
  1761                           ;main.c: 219:                 }
  1762   0014D2  EFC3  F00A         	goto	l4769
  1763   0014D6                     l4749:
  1764                           
  1765                           ; BSR set to: 0
  1766   0014D6  0E0B               	movlw	11
  1767   0014D8  1960               	xorwf	_num_page& (0+255),w,b
  1768   0014DA  1161               	iorwf	(_num_page+1)& (0+255),w,b
  1769   0014DC  B4D8               	btfsc	status,2,c
  1770   0014DE  EF73  F00A         	goto	u3381
  1771   0014E2  EF75  F00A         	goto	u3380
  1772   0014E6                     u3381:
  1773   0014E6  EF93  F00A         	goto	l4757
  1774   0014EA                     u3380:
  1775   0014EA                     
  1776                           ; BSR set to: 0
  1777   0014EA  0E0B               	movlw	11
  1778   0014EC  1962               	xorwf	(_num_page+2)& (0+255),w,b
  1779   0014EE  1163               	iorwf	(_num_page+3)& (0+255),w,b
  1780   0014F0  B4D8               	btfsc	status,2,c
  1781   0014F2  EF7D  F00A         	goto	u3391
  1782   0014F6  EF7F  F00A         	goto	u3390
  1783   0014FA                     u3391:
  1784   0014FA  EF93  F00A         	goto	l4757
  1785   0014FE                     u3390:
  1786   0014FE                     
  1787                           ; BSR set to: 0
  1788   0014FE  0E0B               	movlw	11
  1789   001500  1964               	xorwf	(_num_page+4)& (0+255),w,b
  1790   001502  1165               	iorwf	(_num_page+5)& (0+255),w,b
  1791   001504  B4D8               	btfsc	status,2,c
  1792   001506  EF87  F00A         	goto	u3401
  1793   00150A  EF89  F00A         	goto	u3400
  1794   00150E                     u3401:
  1795   00150E  EF93  F00A         	goto	l4757
  1796   001512                     u3400:
  1797   001512                     
  1798                           ; BSR set to: 0
  1799   001512  0E0B               	movlw	11
  1800   001514  1966               	xorwf	(_num_page+6)& (0+255),w,b
  1801   001516  1167               	iorwf	(_num_page+7)& (0+255),w,b
  1802   001518  A4D8               	btfss	status,2,c
  1803   00151A  EF91  F00A         	goto	u3411
  1804   00151E  EF93  F00A         	goto	u3410
  1805   001522                     u3411:
  1806   001522  EF97  F00A         	goto	l4759
  1807   001526                     u3410:
  1808   001526                     l4757:
  1809                           
  1810                           ; BSR set to: 0
  1811                           ;main.c: 221:                 {;main.c: 222:                     gain = 0x06;
  1812   001526  0E06               	movlw	6
  1813   001528  6FA8               	movwf	_gain& (0+255),b
  1814                           
  1815                           ;main.c: 223:                 }
  1816   00152A  EFC3  F00A         	goto	l4769
  1817   00152E                     l4759:
  1818                           
  1819                           ; BSR set to: 0
  1820   00152E  0E0C               	movlw	12
  1821   001530  1960               	xorwf	_num_page& (0+255),w,b
  1822   001532  1161               	iorwf	(_num_page+1)& (0+255),w,b
  1823   001534  B4D8               	btfsc	status,2,c
  1824   001536  EF9F  F00A         	goto	u3421
  1825   00153A  EFA1  F00A         	goto	u3420
  1826   00153E                     u3421:
  1827   00153E  EFBF  F00A         	goto	l4767
  1828   001542                     u3420:
  1829   001542                     
  1830                           ; BSR set to: 0
  1831   001542  0E0C               	movlw	12
  1832   001544  1962               	xorwf	(_num_page+2)& (0+255),w,b
  1833   001546  1163               	iorwf	(_num_page+3)& (0+255),w,b
  1834   001548  B4D8               	btfsc	status,2,c
  1835   00154A  EFA9  F00A         	goto	u3431
  1836   00154E  EFAB  F00A         	goto	u3430
  1837   001552                     u3431:
  1838   001552  EFBF  F00A         	goto	l4767
  1839   001556                     u3430:
  1840   001556                     
  1841                           ; BSR set to: 0
  1842   001556  0E0C               	movlw	12
  1843   001558  1964               	xorwf	(_num_page+4)& (0+255),w,b
  1844   00155A  1165               	iorwf	(_num_page+5)& (0+255),w,b
  1845   00155C  B4D8               	btfsc	status,2,c
  1846   00155E  EFB3  F00A         	goto	u3441
  1847   001562  EFB5  F00A         	goto	u3440
  1848   001566                     u3441:
  1849   001566  EFBF  F00A         	goto	l4767
  1850   00156A                     u3440:
  1851   00156A                     
  1852                           ; BSR set to: 0
  1853   00156A  0E0C               	movlw	12
  1854   00156C  1966               	xorwf	(_num_page+6)& (0+255),w,b
  1855   00156E  1167               	iorwf	(_num_page+7)& (0+255),w,b
  1856   001570  A4D8               	btfss	status,2,c
  1857   001572  EFBD  F00A         	goto	u3451
  1858   001576  EFBF  F00A         	goto	u3450
  1859   00157A                     u3451:
  1860   00157A  EFC3  F00A         	goto	l951
  1861   00157E                     u3450:
  1862   00157E                     l4767:
  1863                           
  1864                           ; BSR set to: 0
  1865                           ;main.c: 225:                 {;main.c: 226:                     gain = 0x07;
  1866   00157E  0E07               	movlw	7
  1867   001580  6FA8               	movwf	_gain& (0+255),b
  1868   001582  EFC3  F00A         	goto	l4769
  1869   001586                     l951:
  1870   001586                     l4769:
  1871                           
  1872                           ; BSR set to: 0
  1873   001586  94BC               	bcf	188,2,c	;volatile
  1874   001588                     
  1875                           ; BSR set to: 0
  1876                           ;main.c: 231:                 SPI1_ExchangeByte(0x40);
  1877   001588  0E40               	movlw	64
  1878   00158A  ECDC  F016         	call	_SPI1_ExchangeByte
  1879   00158E                     
  1880                           ;main.c: 234:                 SPI1_ExchangeByte(gain);
  1881   00158E  0100               	movlb	0	; () banked
  1882   001590  51A8               	movf	_gain& (0+255),w,b
  1883   001592  ECDC  F016         	call	_SPI1_ExchangeByte
  1884   001596  84BC               	bsf	188,2,c	;volatile
  1885   001598                     
  1886                           ;main.c: 239:                 send_gain = 0;
  1887   001598  0E00               	movlw	0
  1888   00159A  0100               	movlb	0	; () banked
  1889   00159C  6F95               	movwf	(_send_gain+1)& (0+255),b
  1890   00159E  0E00               	movlw	0
  1891   0015A0  6F94               	movwf	_send_gain& (0+255),b
  1892                           
  1893                           ;main.c: 240:             }
  1894   0015A2  EF89  F00D         	goto	l4899
  1895   0015A6                     l4777:
  1896                           
  1897                           ; BSR set to: 0
  1898   0015A6  0592               	decf	_send_fifo& (0+255),w,b
  1899   0015A8  1193               	iorwf	(_send_fifo+1)& (0+255),w,b
  1900   0015AA  A4D8               	btfss	status,2,c
  1901   0015AC  EFDA  F00A         	goto	u3461
  1902   0015B0  EFDC  F00A         	goto	u3460
  1903   0015B4                     u3461:
  1904   0015B4  EF89  F00D         	goto	l4899
  1905   0015B8                     u3460:
  1906   0015B8                     
  1907                           ; BSR set to: 0
  1908                           ;main.c: 242:             {;main.c: 243:                 if((num_page[0] == 1) || (num_p
      +                          age[1] == 1) || (num_page[2] == 1) || (num_page[3] == 1))
  1909   0015B8  0560               	decf	_num_page& (0+255),w,b
  1910   0015BA  1161               	iorwf	(_num_page+1)& (0+255),w,b
  1911   0015BC  B4D8               	btfsc	status,2,c
  1912   0015BE  EFE3  F00A         	goto	u3471
  1913   0015C2  EFE5  F00A         	goto	u3470
  1914   0015C6                     u3471:
  1915   0015C6  EF00  F00B         	goto	l971
  1916   0015CA                     u3470:
  1917   0015CA                     
  1918                           ; BSR set to: 0
  1919   0015CA  0562               	decf	(_num_page+2)& (0+255),w,b
  1920   0015CC  1163               	iorwf	(_num_page+3)& (0+255),w,b
  1921   0015CE  B4D8               	btfsc	status,2,c
  1922   0015D0  EFEC  F00A         	goto	u3481
  1923   0015D4  EFEE  F00A         	goto	u3480
  1924   0015D8                     u3481:
  1925   0015D8  EF00  F00B         	goto	l971
  1926   0015DC                     u3480:
  1927   0015DC                     
  1928                           ; BSR set to: 0
  1929   0015DC  0564               	decf	(_num_page+4)& (0+255),w,b
  1930   0015DE  1165               	iorwf	(_num_page+5)& (0+255),w,b
  1931   0015E0  B4D8               	btfsc	status,2,c
  1932   0015E2  EFF5  F00A         	goto	u3491
  1933   0015E6  EFF7  F00A         	goto	u3490
  1934   0015EA                     u3491:
  1935   0015EA  EF00  F00B         	goto	l971
  1936   0015EE                     u3490:
  1937   0015EE                     
  1938                           ; BSR set to: 0
  1939   0015EE  0566               	decf	(_num_page+6)& (0+255),w,b
  1940   0015F0  1167               	iorwf	(_num_page+7)& (0+255),w,b
  1941   0015F2  A4D8               	btfss	status,2,c
  1942   0015F4  EFFE  F00A         	goto	u3501
  1943   0015F8  EF00  F00B         	goto	u3500
  1944   0015FC                     u3501:
  1945   0015FC  EF0A  F00B         	goto	l4787
  1946   001600                     u3500:
  1947   001600                     l971:
  1948                           
  1949                           ; BSR set to: 0
  1950                           ;main.c: 244:                 {;main.c: 245:                     ref_0 = final_result_0;
  1951   001600  C0A2  F09E         	movff	_final_result_0,_ref_0
  1952   001604  C0A3  F09F         	movff	_final_result_0+1,_ref_0+1
  1953                           
  1954                           ;main.c: 246:                     ref_1 = final_result_1;
  1955   001608  C0A0  F09C         	movff	_final_result_1,_ref_1
  1956   00160C  C0A1  F09D         	movff	_final_result_1+1,_ref_1+1
  1957                           
  1958                           ;main.c: 247:                 }
  1959   001610  EF89  F00D         	goto	l4899
  1960   001614                     l4787:
  1961                           
  1962                           ; BSR set to: 0
  1963   001614  0E02               	movlw	2
  1964   001616  1960               	xorwf	_num_page& (0+255),w,b
  1965   001618  1161               	iorwf	(_num_page+1)& (0+255),w,b
  1966   00161A  B4D8               	btfsc	status,2,c
  1967   00161C  EF12  F00B         	goto	u3511
  1968   001620  EF14  F00B         	goto	u3510
  1969   001624                     u3511:
  1970   001624  EF32  F00B         	goto	l4795
  1971   001628                     u3510:
  1972   001628                     
  1973                           ; BSR set to: 0
  1974   001628  0E02               	movlw	2
  1975   00162A  1962               	xorwf	(_num_page+2)& (0+255),w,b
  1976   00162C  1163               	iorwf	(_num_page+3)& (0+255),w,b
  1977   00162E  B4D8               	btfsc	status,2,c
  1978   001630  EF1C  F00B         	goto	u3521
  1979   001634  EF1E  F00B         	goto	u3520
  1980   001638                     u3521:
  1981   001638  EF32  F00B         	goto	l4795
  1982   00163C                     u3520:
  1983   00163C                     
  1984                           ; BSR set to: 0
  1985   00163C  0E02               	movlw	2
  1986   00163E  1964               	xorwf	(_num_page+4)& (0+255),w,b
  1987   001640  1165               	iorwf	(_num_page+5)& (0+255),w,b
  1988   001642  B4D8               	btfsc	status,2,c
  1989   001644  EF26  F00B         	goto	u3531
  1990   001648  EF28  F00B         	goto	u3530
  1991   00164C                     u3531:
  1992   00164C  EF32  F00B         	goto	l4795
  1993   001650                     u3530:
  1994   001650                     
  1995                           ; BSR set to: 0
  1996   001650  0E02               	movlw	2
  1997   001652  1966               	xorwf	(_num_page+6)& (0+255),w,b
  1998   001654  1167               	iorwf	(_num_page+7)& (0+255),w,b
  1999   001656  A4D8               	btfss	status,2,c
  2000   001658  EF30  F00B         	goto	u3541
  2001   00165C  EF32  F00B         	goto	u3540
  2002   001660                     u3541:
  2003   001660  EFDF  F00B         	goto	l4821
  2004   001664                     u3540:
  2005   001664                     l4795:
  2006                           
  2007                           ; BSR set to: 0
  2008                           ;main.c: 249:                 {;main.c: 250:                     num16_0 = abs_16(final_
      +                          result_0-ref_0);
  2009   001664  519E               	movf	_ref_0& (0+255),w,b
  2010   001666  5DA2               	subwf	_final_result_0& (0+255),w,b
  2011   001668  6E0A               	movwf	abs_16@num^0,c
  2012   00166A  519F               	movf	(_ref_0+1)& (0+255),w,b
  2013   00166C  59A3               	subwfb	(_final_result_0+1)& (0+255),w,b
  2014   00166E  6E0B               	movwf	(abs_16@num+1)^0,c
  2015   001670  ECF4  F015         	call	_abs_16	;wreg free
  2016   001674  C00A  F14A         	movff	?_abs_16,main@num16_0
  2017   001678  C00B  F14B         	movff	?_abs_16+1,main@num16_0+1
  2018                           
  2019                           ;main.c: 251:                     num16_1 = abs_16(final_result_1-ref_1);
  2020   00167C  0100               	movlb	0	; () banked
  2021   00167E  519C               	movf	_ref_1& (0+255),w,b
  2022   001680  5DA0               	subwf	_final_result_1& (0+255),w,b
  2023   001682  6E0A               	movwf	abs_16@num^0,c
  2024   001684  519D               	movf	(_ref_1+1)& (0+255),w,b
  2025   001686  59A1               	subwfb	(_final_result_1+1)& (0+255),w,b
  2026   001688  6E0B               	movwf	(abs_16@num+1)^0,c
  2027   00168A  ECF4  F015         	call	_abs_16	;wreg free
  2028   00168E  C00A  F14C         	movff	?_abs_16,main@num16_1
  2029   001692  C00B  F14D         	movff	?_abs_16+1,main@num16_1+1
  2030   001696                     
  2031                           ;main.c: 253:                     pushString(eusart1,"add 1,0,0x");
  2032   001696  0E00               	movlw	low _struct_eusart1
  2033   001698  6E12               	movwf	pushString@targetFIFO^0,c
  2034   00169A  0E02               	movlw	high _struct_eusart1
  2035   00169C  6E13               	movwf	(pushString@targetFIFO+1)^0,c
  2036   00169E  0E22               	movlw	low STR_5
  2037   0016A0  6E14               	movwf	pushString@newString^0,c
  2038   0016A2  0E10               	movlw	high STR_5
  2039   0016A4  6E15               	movwf	(pushString@newString+1)^0,c
  2040   0016A6  ECF5  F00E         	call	_pushString	;wreg free
  2041   0016AA                     
  2042                           ;main.c: 254:                     send_result[0] = categorize_number((uint8_t)((num16_0&
      +                          0x07FF)>>3), 1);
  2043   0016AA  0E01               	movlw	1
  2044   0016AC  6E0A               	movwf	categorize_number@sec^0,c
  2045   0016AE  C14A  F0B3         	movff	main@num16_0,??_main
  2046   0016B2  C14B  F0B4         	movff	main@num16_0+1,??_main+1
  2047   0016B6  0100               	movlb	0	; () banked
  2048   0016B8  90D8               	bcf	status,0,c
  2049   0016BA  33B4               	rrcf	(??_main+1)& (0+255),f,b
  2050   0016BC  33B3               	rrcf	??_main& (0+255),f,b
  2051   0016BE  90D8               	bcf	status,0,c
  2052   0016C0  33B4               	rrcf	(??_main+1)& (0+255),f,b
  2053   0016C2  33B3               	rrcf	??_main& (0+255),f,b
  2054   0016C4  90D8               	bcf	status,0,c
  2055   0016C6  33B4               	rrcf	(??_main+1)& (0+255),f,b
  2056   0016C8  33B3               	rrcf	??_main& (0+255),f,b
  2057   0016CA  51B3               	movf	??_main& (0+255),w,b
  2058   0016CC  EC32  F014         	call	_categorize_number
  2059   0016D0  0100               	movlb	0	; () banked
  2060   0016D2  6FAA               	movwf	_send_result& (0+255),b
  2061   0016D4                     
  2062                           ; BSR set to: 0
  2063                           ;main.c: 255:                     send_result[1] = categorize_number((uint8_t)((num16_0&
      +                          0x07FF)>>3), 0);
  2064   0016D4  0E00               	movlw	0
  2065   0016D6  6E0A               	movwf	categorize_number@sec^0,c
  2066   0016D8  C14A  F0B3         	movff	main@num16_0,??_main
  2067   0016DC  C14B  F0B4         	movff	main@num16_0+1,??_main+1
  2068   0016E0  90D8               	bcf	status,0,c
  2069   0016E2  33B4               	rrcf	(??_main+1)& (0+255),f,b
  2070   0016E4  33B3               	rrcf	??_main& (0+255),f,b
  2071   0016E6  90D8               	bcf	status,0,c
  2072   0016E8  33B4               	rrcf	(??_main+1)& (0+255),f,b
  2073   0016EA  33B3               	rrcf	??_main& (0+255),f,b
  2074   0016EC  90D8               	bcf	status,0,c
  2075   0016EE  33B4               	rrcf	(??_main+1)& (0+255),f,b
  2076   0016F0  33B3               	rrcf	??_main& (0+255),f,b
  2077   0016F2  51B3               	movf	??_main& (0+255),w,b
  2078   0016F4  EC32  F014         	call	_categorize_number
  2079   0016F8  0100               	movlb	0	; () banked
  2080   0016FA  6FAB               	movwf	(_send_result+1)& (0+255),b
  2081   0016FC                     
  2082                           ; BSR set to: 0
  2083                           ;main.c: 256:                     send_result[2] = '\0';
  2084   0016FC  0E00               	movlw	0
  2085   0016FE  6FAC               	movwf	(_send_result+2)& (0+255),b
  2086   001700                     
  2087                           ; BSR set to: 0
  2088                           ;main.c: 257:                     pushString(eusart1,send_result);
  2089   001700  0E00               	movlw	low _struct_eusart1
  2090   001702  6E12               	movwf	pushString@targetFIFO^0,c
  2091   001704  0E02               	movlw	high _struct_eusart1
  2092   001706  6E13               	movwf	(pushString@targetFIFO+1)^0,c
  2093   001708  0EAA               	movlw	low _send_result
  2094   00170A  6E14               	movwf	pushString@newString^0,c
  2095   00170C  0E00               	movlw	high _send_result
  2096   00170E  6E15               	movwf	(pushString@newString+1)^0,c
  2097   001710  ECF5  F00E         	call	_pushString	;wreg free
  2098   001714                     
  2099                           ;main.c: 258:                     pushString(eusart1,send_Fs);
  2100   001714  0E00               	movlw	low _struct_eusart1
  2101   001716  6E12               	movwf	pushString@targetFIFO^0,c
  2102   001718  0E02               	movlw	high _struct_eusart1
  2103   00171A  6E13               	movwf	(pushString@targetFIFO+1)^0,c
  2104   00171C  0EB8               	movlw	low _send_Fs
  2105   00171E  6E14               	movwf	pushString@newString^0,c
  2106   001720  0E00               	movlw	high _send_Fs
  2107   001722  6E15               	movwf	(pushString@newString+1)^0,c
  2108   001724  ECF5  F00E         	call	_pushString	;wreg free
  2109   001728                     
  2110                           ;main.c: 260:                     pushString(eusart1,"add 1,1,0x");
  2111   001728  0E00               	movlw	low _struct_eusart1
  2112   00172A  6E12               	movwf	pushString@targetFIFO^0,c
  2113   00172C  0E02               	movlw	high _struct_eusart1
  2114   00172E  6E13               	movwf	(pushString@targetFIFO+1)^0,c
  2115   001730  0E2D               	movlw	low STR_6
  2116   001732  6E14               	movwf	pushString@newString^0,c
  2117   001734  0E10               	movlw	high STR_6
  2118   001736  6E15               	movwf	(pushString@newString+1)^0,c
  2119   001738  ECF5  F00E         	call	_pushString	;wreg free
  2120   00173C                     
  2121                           ;main.c: 261:                     send_result[0] = categorize_number((uint8_t)((num16_1&
      +                          0x07FF)>>3), 1);
  2122   00173C  0E01               	movlw	1
  2123   00173E  6E0A               	movwf	categorize_number@sec^0,c
  2124   001740  C14C  F0B3         	movff	main@num16_1,??_main
  2125   001744  C14D  F0B4         	movff	main@num16_1+1,??_main+1
  2126   001748  0100               	movlb	0	; () banked
  2127   00174A  90D8               	bcf	status,0,c
  2128   00174C  33B4               	rrcf	(??_main+1)& (0+255),f,b
  2129   00174E  33B3               	rrcf	??_main& (0+255),f,b
  2130   001750  90D8               	bcf	status,0,c
  2131   001752  33B4               	rrcf	(??_main+1)& (0+255),f,b
  2132   001754  33B3               	rrcf	??_main& (0+255),f,b
  2133   001756  90D8               	bcf	status,0,c
  2134   001758  33B4               	rrcf	(??_main+1)& (0+255),f,b
  2135   00175A  33B3               	rrcf	??_main& (0+255),f,b
  2136   00175C  51B3               	movf	??_main& (0+255),w,b
  2137   00175E  EC32  F014         	call	_categorize_number
  2138   001762  0100               	movlb	0	; () banked
  2139   001764  6FAA               	movwf	_send_result& (0+255),b
  2140   001766                     
  2141                           ; BSR set to: 0
  2142                           ;main.c: 262:                     send_result[1] = categorize_number((uint8_t)((num16_1&
      +                          0x07FF)>>3), 0);
  2143   001766  0E00               	movlw	0
  2144   001768  6E0A               	movwf	categorize_number@sec^0,c
  2145   00176A  C14C  F0B3         	movff	main@num16_1,??_main
  2146   00176E  C14D  F0B4         	movff	main@num16_1+1,??_main+1
  2147   001772  90D8               	bcf	status,0,c
  2148   001774  33B4               	rrcf	(??_main+1)& (0+255),f,b
  2149   001776  33B3               	rrcf	??_main& (0+255),f,b
  2150   001778  90D8               	bcf	status,0,c
  2151   00177A  33B4               	rrcf	(??_main+1)& (0+255),f,b
  2152   00177C  33B3               	rrcf	??_main& (0+255),f,b
  2153   00177E  90D8               	bcf	status,0,c
  2154   001780  33B4               	rrcf	(??_main+1)& (0+255),f,b
  2155   001782  33B3               	rrcf	??_main& (0+255),f,b
  2156   001784  51B3               	movf	??_main& (0+255),w,b
  2157   001786  EC32  F014         	call	_categorize_number
  2158   00178A  0100               	movlb	0	; () banked
  2159   00178C  6FAB               	movwf	(_send_result+1)& (0+255),b
  2160   00178E                     l4815:
  2161                           
  2162                           ; BSR set to: 0
  2163                           ;main.c: 263:                     send_result[2] = '\0';
  2164   00178E  0E00               	movlw	0
  2165   001790  6FAC               	movwf	(_send_result+2)& (0+255),b
  2166   001792                     
  2167                           ; BSR set to: 0
  2168                           ;main.c: 264:                     pushString(eusart1,send_result);
  2169   001792  0E00               	movlw	low _struct_eusart1
  2170   001794  6E12               	movwf	pushString@targetFIFO^0,c
  2171   001796  0E02               	movlw	high _struct_eusart1
  2172   001798  6E13               	movwf	(pushString@targetFIFO+1)^0,c
  2173   00179A  0EAA               	movlw	low _send_result
  2174   00179C  6E14               	movwf	pushString@newString^0,c
  2175   00179E  0E00               	movlw	high _send_result
  2176   0017A0  6E15               	movwf	(pushString@newString+1)^0,c
  2177   0017A2  ECF5  F00E         	call	_pushString	;wreg free
  2178   0017A6                     l4819:
  2179                           
  2180                           ;main.c: 265:                     pushString(eusart1,send_Fs);
  2181   0017A6  0E00               	movlw	low _struct_eusart1
  2182   0017A8  6E12               	movwf	pushString@targetFIFO^0,c
  2183   0017AA  0E02               	movlw	high _struct_eusart1
  2184   0017AC  6E13               	movwf	(pushString@targetFIFO+1)^0,c
  2185   0017AE  0EB8               	movlw	low _send_Fs
  2186   0017B0  6E14               	movwf	pushString@newString^0,c
  2187   0017B2  0E00               	movlw	high _send_Fs
  2188   0017B4  6E15               	movwf	(pushString@newString+1)^0,c
  2189   0017B6  ECF5  F00E         	call	_pushString	;wreg free
  2190                           
  2191                           ;main.c: 266:                 }
  2192   0017BA  EF89  F00D         	goto	l4899
  2193   0017BE                     l4821:
  2194                           
  2195                           ; BSR set to: 0
  2196   0017BE  0E03               	movlw	3
  2197   0017C0  1960               	xorwf	_num_page& (0+255),w,b
  2198   0017C2  1161               	iorwf	(_num_page+1)& (0+255),w,b
  2199   0017C4  B4D8               	btfsc	status,2,c
  2200   0017C6  EFE7  F00B         	goto	u3551
  2201   0017CA  EFE9  F00B         	goto	u3550
  2202   0017CE                     u3551:
  2203   0017CE  EF07  F00C         	goto	l4829
  2204   0017D2                     u3550:
  2205   0017D2                     
  2206                           ; BSR set to: 0
  2207   0017D2  0E03               	movlw	3
  2208   0017D4  1962               	xorwf	(_num_page+2)& (0+255),w,b
  2209   0017D6  1163               	iorwf	(_num_page+3)& (0+255),w,b
  2210   0017D8  B4D8               	btfsc	status,2,c
  2211   0017DA  EFF1  F00B         	goto	u3561
  2212   0017DE  EFF3  F00B         	goto	u3560
  2213   0017E2                     u3561:
  2214   0017E2  EF07  F00C         	goto	l4829
  2215   0017E6                     u3560:
  2216   0017E6                     
  2217                           ; BSR set to: 0
  2218   0017E6  0E03               	movlw	3
  2219   0017E8  1964               	xorwf	(_num_page+4)& (0+255),w,b
  2220   0017EA  1165               	iorwf	(_num_page+5)& (0+255),w,b
  2221   0017EC  B4D8               	btfsc	status,2,c
  2222   0017EE  EFFB  F00B         	goto	u3571
  2223   0017F2  EFFD  F00B         	goto	u3570
  2224   0017F6                     u3571:
  2225   0017F6  EF07  F00C         	goto	l4829
  2226   0017FA                     u3570:
  2227   0017FA                     
  2228                           ; BSR set to: 0
  2229   0017FA  0E03               	movlw	3
  2230   0017FC  1966               	xorwf	(_num_page+6)& (0+255),w,b
  2231   0017FE  1167               	iorwf	(_num_page+7)& (0+255),w,b
  2232   001800  A4D8               	btfss	status,2,c
  2233   001802  EF05  F00C         	goto	u3581
  2234   001806  EF07  F00C         	goto	u3580
  2235   00180A                     u3581:
  2236   00180A  EFD2  F00C         	goto	l4863
  2237   00180E                     u3580:
  2238   00180E                     l4829:
  2239                           
  2240                           ; BSR set to: 0
  2241                           ;main.c: 268:                 {;main.c: 269:                     num16_0 = abs_16(final_
      +                          result_0-ref_0);
  2242   00180E  519E               	movf	_ref_0& (0+255),w,b
  2243   001810  5DA2               	subwf	_final_result_0& (0+255),w,b
  2244   001812  6E0A               	movwf	abs_16@num^0,c
  2245   001814  519F               	movf	(_ref_0+1)& (0+255),w,b
  2246   001816  59A3               	subwfb	(_final_result_0+1)& (0+255),w,b
  2247   001818  6E0B               	movwf	(abs_16@num+1)^0,c
  2248   00181A  ECF4  F015         	call	_abs_16	;wreg free
  2249   00181E  C00A  F14A         	movff	?_abs_16,main@num16_0
  2250   001822  C00B  F14B         	movff	?_abs_16+1,main@num16_0+1
  2251                           
  2252                           ;main.c: 270:                     num16_1 = abs_16(final_result_1-ref_1);
  2253   001826  0100               	movlb	0	; () banked
  2254   001828  519C               	movf	_ref_1& (0+255),w,b
  2255   00182A  5DA0               	subwf	_final_result_1& (0+255),w,b
  2256   00182C  6E0A               	movwf	abs_16@num^0,c
  2257   00182E  519D               	movf	(_ref_1+1)& (0+255),w,b
  2258   001830  59A1               	subwfb	(_final_result_1+1)& (0+255),w,b
  2259   001832  6E0B               	movwf	(abs_16@num+1)^0,c
  2260   001834  ECF4  F015         	call	_abs_16	;wreg free
  2261   001838  C00A  F14C         	movff	?_abs_16,main@num16_1
  2262   00183C  C00B  F14D         	movff	?_abs_16+1,main@num16_1+1
  2263   001840                     
  2264                           ;main.c: 273:                     pushString(eusart1,"sin.val=0x");
  2265   001840  0E00               	movlw	low _struct_eusart1
  2266   001842  6E12               	movwf	pushString@targetFIFO^0,c
  2267   001844  0E02               	movlw	high _struct_eusart1
  2268   001846  6E13               	movwf	(pushString@targetFIFO+1)^0,c
  2269   001848  0E38               	movlw	low STR_7
  2270   00184A  6E14               	movwf	pushString@newString^0,c
  2271   00184C  0E10               	movlw	high STR_7
  2272   00184E  6E15               	movwf	(pushString@newString+1)^0,c
  2273   001850  ECF5  F00E         	call	_pushString	;wreg free
  2274   001854                     
  2275                           ;main.c: 274:                     send_result[0] = categorize_number((uint8_t)((num16_1&
      +                          0x07FF)>>3), 1);
  2276   001854  0E01               	movlw	1
  2277   001856  6E0A               	movwf	categorize_number@sec^0,c
  2278   001858  C14C  F0B3         	movff	main@num16_1,??_main
  2279   00185C  C14D  F0B4         	movff	main@num16_1+1,??_main+1
  2280   001860  0100               	movlb	0	; () banked
  2281   001862  90D8               	bcf	status,0,c
  2282   001864  33B4               	rrcf	(??_main+1)& (0+255),f,b
  2283   001866  33B3               	rrcf	??_main& (0+255),f,b
  2284   001868  90D8               	bcf	status,0,c
  2285   00186A  33B4               	rrcf	(??_main+1)& (0+255),f,b
  2286   00186C  33B3               	rrcf	??_main& (0+255),f,b
  2287   00186E  90D8               	bcf	status,0,c
  2288   001870  33B4               	rrcf	(??_main+1)& (0+255),f,b
  2289   001872  33B3               	rrcf	??_main& (0+255),f,b
  2290   001874  51B3               	movf	??_main& (0+255),w,b
  2291   001876  EC32  F014         	call	_categorize_number
  2292   00187A  0100               	movlb	0	; () banked
  2293   00187C  6FAA               	movwf	_send_result& (0+255),b
  2294   00187E                     
  2295                           ; BSR set to: 0
  2296                           ;main.c: 275:                     send_result[1] = categorize_number((uint8_t)((num16_1&
      +                          0x07FF)>>3), 0);
  2297   00187E  0E00               	movlw	0
  2298   001880  6E0A               	movwf	categorize_number@sec^0,c
  2299   001882  C14C  F0B3         	movff	main@num16_1,??_main
  2300   001886  C14D  F0B4         	movff	main@num16_1+1,??_main+1
  2301   00188A  90D8               	bcf	status,0,c
  2302   00188C  33B4               	rrcf	(??_main+1)& (0+255),f,b
  2303   00188E  33B3               	rrcf	??_main& (0+255),f,b
  2304   001890  90D8               	bcf	status,0,c
  2305   001892  33B4               	rrcf	(??_main+1)& (0+255),f,b
  2306   001894  33B3               	rrcf	??_main& (0+255),f,b
  2307   001896  90D8               	bcf	status,0,c
  2308   001898  33B4               	rrcf	(??_main+1)& (0+255),f,b
  2309   00189A  33B3               	rrcf	??_main& (0+255),f,b
  2310   00189C  51B3               	movf	??_main& (0+255),w,b
  2311   00189E  EC32  F014         	call	_categorize_number
  2312   0018A2  0100               	movlb	0	; () banked
  2313   0018A4  6FAB               	movwf	(_send_result+1)& (0+255),b
  2314   0018A6                     
  2315                           ; BSR set to: 0
  2316                           ;main.c: 276:                     send_result[2] = '\0';
  2317   0018A6  0E00               	movlw	0
  2318   0018A8  6FAC               	movwf	(_send_result+2)& (0+255),b
  2319   0018AA                     
  2320                           ; BSR set to: 0
  2321                           ;main.c: 277:                     pushString(eusart1,send_result);
  2322   0018AA  0E00               	movlw	low _struct_eusart1
  2323   0018AC  6E12               	movwf	pushString@targetFIFO^0,c
  2324   0018AE  0E02               	movlw	high _struct_eusart1
  2325   0018B0  6E13               	movwf	(pushString@targetFIFO+1)^0,c
  2326   0018B2  0EAA               	movlw	low _send_result
  2327   0018B4  6E14               	movwf	pushString@newString^0,c
  2328   0018B6  0E00               	movlw	high _send_result
  2329   0018B8  6E15               	movwf	(pushString@newString+1)^0,c
  2330   0018BA  ECF5  F00E         	call	_pushString	;wreg free
  2331   0018BE                     
  2332                           ;main.c: 278:                     pushString(eusart1,send_Fs);
  2333   0018BE  0E00               	movlw	low _struct_eusart1
  2334   0018C0  6E12               	movwf	pushString@targetFIFO^0,c
  2335   0018C2  0E02               	movlw	high _struct_eusart1
  2336   0018C4  6E13               	movwf	(pushString@targetFIFO+1)^0,c
  2337   0018C6  0EB8               	movlw	low _send_Fs
  2338   0018C8  6E14               	movwf	pushString@newString^0,c
  2339   0018CA  0E00               	movlw	high _send_Fs
  2340   0018CC  6E15               	movwf	(pushString@newString+1)^0,c
  2341   0018CE  ECF5  F00E         	call	_pushString	;wreg free
  2342   0018D2                     
  2343                           ;main.c: 281:                     pushString(eusart1,"cos.val=0x");
  2344   0018D2  0E00               	movlw	low _struct_eusart1
  2345   0018D4  6E12               	movwf	pushString@targetFIFO^0,c
  2346   0018D6  0E02               	movlw	high _struct_eusart1
  2347   0018D8  6E13               	movwf	(pushString@targetFIFO+1)^0,c
  2348   0018DA  0E43               	movlw	low STR_8
  2349   0018DC  6E14               	movwf	pushString@newString^0,c
  2350   0018DE  0E10               	movlw	high STR_8
  2351   0018E0  6E15               	movwf	(pushString@newString+1)^0,c
  2352   0018E2  ECF5  F00E         	call	_pushString	;wreg free
  2353   0018E6                     
  2354                           ;main.c: 282:                     send_result[0] = categorize_number((uint8_t)((num16_0&
      +                          0x07FF)>>3), 1);
  2355   0018E6  0E01               	movlw	1
  2356   0018E8  6E0A               	movwf	categorize_number@sec^0,c
  2357   0018EA  C14A  F0B3         	movff	main@num16_0,??_main
  2358   0018EE  C14B  F0B4         	movff	main@num16_0+1,??_main+1
  2359   0018F2  0100               	movlb	0	; () banked
  2360   0018F4  90D8               	bcf	status,0,c
  2361   0018F6  33B4               	rrcf	(??_main+1)& (0+255),f,b
  2362   0018F8  33B3               	rrcf	??_main& (0+255),f,b
  2363   0018FA  90D8               	bcf	status,0,c
  2364   0018FC  33B4               	rrcf	(??_main+1)& (0+255),f,b
  2365   0018FE  33B3               	rrcf	??_main& (0+255),f,b
  2366   001900  90D8               	bcf	status,0,c
  2367   001902  33B4               	rrcf	(??_main+1)& (0+255),f,b
  2368   001904  33B3               	rrcf	??_main& (0+255),f,b
  2369   001906  51B3               	movf	??_main& (0+255),w,b
  2370   001908  EC32  F014         	call	_categorize_number
  2371   00190C  0100               	movlb	0	; () banked
  2372   00190E  6FAA               	movwf	_send_result& (0+255),b
  2373   001910                     
  2374                           ; BSR set to: 0
  2375                           ;main.c: 283:                     send_result[1] = categorize_number((uint8_t)((num16_0&
      +                          0x07FF)>>3), 0);
  2376   001910  0E00               	movlw	0
  2377   001912  6E0A               	movwf	categorize_number@sec^0,c
  2378   001914  C14A  F0B3         	movff	main@num16_0,??_main
  2379   001918  C14B  F0B4         	movff	main@num16_0+1,??_main+1
  2380   00191C  90D8               	bcf	status,0,c
  2381   00191E  33B4               	rrcf	(??_main+1)& (0+255),f,b
  2382   001920  33B3               	rrcf	??_main& (0+255),f,b
  2383   001922  90D8               	bcf	status,0,c
  2384   001924  33B4               	rrcf	(??_main+1)& (0+255),f,b
  2385   001926  33B3               	rrcf	??_main& (0+255),f,b
  2386   001928  90D8               	bcf	status,0,c
  2387   00192A  33B4               	rrcf	(??_main+1)& (0+255),f,b
  2388   00192C  33B3               	rrcf	??_main& (0+255),f,b
  2389   00192E  51B3               	movf	??_main& (0+255),w,b
  2390   001930  EC32  F014         	call	_categorize_number
  2391   001934  0100               	movlb	0	; () banked
  2392   001936  6FAB               	movwf	(_send_result+1)& (0+255),b
  2393   001938                     
  2394                           ; BSR set to: 0
  2395                           ;main.c: 284:                     send_result[2] = '\0';
  2396   001938  0E00               	movlw	0
  2397   00193A  6FAC               	movwf	(_send_result+2)& (0+255),b
  2398   00193C                     
  2399                           ; BSR set to: 0
  2400                           ;main.c: 285:                     pushString(eusart1,send_result);
  2401   00193C  0E00               	movlw	low _struct_eusart1
  2402   00193E  6E12               	movwf	pushString@targetFIFO^0,c
  2403   001940  0E02               	movlw	high _struct_eusart1
  2404   001942  6E13               	movwf	(pushString@targetFIFO+1)^0,c
  2405   001944  0EAA               	movlw	low _send_result
  2406   001946  6E14               	movwf	pushString@newString^0,c
  2407   001948  0E00               	movlw	high _send_result
  2408   00194A  6E15               	movwf	(pushString@newString+1)^0,c
  2409   00194C  ECF5  F00E         	call	_pushString	;wreg free
  2410   001950                     
  2411                           ;main.c: 286:                     pushString(eusart1,send_Fs);
  2412   001950  0E00               	movlw	low _struct_eusart1
  2413   001952  6E12               	movwf	pushString@targetFIFO^0,c
  2414   001954  0E02               	movlw	high _struct_eusart1
  2415   001956  6E13               	movwf	(pushString@targetFIFO+1)^0,c
  2416   001958  0EB8               	movlw	low _send_Fs
  2417   00195A  6E14               	movwf	pushString@newString^0,c
  2418   00195C  0E00               	movlw	high _send_Fs
  2419   00195E  6E15               	movwf	(pushString@newString+1)^0,c
  2420   001960  ECF5  F00E         	call	_pushString	;wreg free
  2421   001964                     
  2422                           ;main.c: 305:                     pushString(eusart1,"ref page3");
  2423   001964  0E00               	movlw	low _struct_eusart1
  2424   001966  6E12               	movwf	pushString@targetFIFO^0,c
  2425   001968  0E02               	movlw	high _struct_eusart1
  2426   00196A  6E13               	movwf	(pushString@targetFIFO+1)^0,c
  2427   00196C  0E4E               	movlw	low STR_9
  2428   00196E  6E14               	movwf	pushString@newString^0,c
  2429   001970  0E10               	movlw	high STR_9
  2430   001972  6E15               	movwf	(pushString@newString+1)^0,c
  2431   001974  ECF5  F00E         	call	_pushString	;wreg free
  2432   001978                     
  2433                           ;main.c: 306:                     pushString(eusart1,send_Fs);
  2434   001978  0E00               	movlw	low _struct_eusart1
  2435   00197A  6E12               	movwf	pushString@targetFIFO^0,c
  2436   00197C  0E02               	movlw	high _struct_eusart1
  2437   00197E  6E13               	movwf	(pushString@targetFIFO+1)^0,c
  2438   001980  0EB8               	movlw	low _send_Fs
  2439   001982  6E14               	movwf	pushString@newString^0,c
  2440   001984  0E00               	movlw	high _send_Fs
  2441   001986  6E15               	movwf	(pushString@newString+1)^0,c
  2442   001988  ECF5  F00E         	call	_pushString	;wreg free
  2443   00198C                     
  2444                           ;main.c: 307:                     pushString(eusart1,"refresh.en=1");
  2445   00198C  0E00               	movlw	low _struct_eusart1
  2446   00198E  6E12               	movwf	pushString@targetFIFO^0,c
  2447   001990  0E02               	movlw	high _struct_eusart1
  2448   001992  6E13               	movwf	(pushString@targetFIFO+1)^0,c
  2449   001994  0E15               	movlw	low STR_10
  2450   001996  6E14               	movwf	pushString@newString^0,c
  2451   001998  0E10               	movlw	high STR_10
  2452   00199A  6E15               	movwf	(pushString@newString+1)^0,c
  2453   00199C  ECF5  F00E         	call	_pushString	;wreg free
  2454   0019A0  EFD3  F00B         	goto	l4819
  2455   0019A4                     l4863:
  2456                           
  2457                           ; BSR set to: 0
  2458   0019A4  0E04               	movlw	4
  2459   0019A6  1960               	xorwf	_num_page& (0+255),w,b
  2460   0019A8  1161               	iorwf	(_num_page+1)& (0+255),w,b
  2461   0019AA  B4D8               	btfsc	status,2,c
  2462   0019AC  EFDA  F00C         	goto	u3591
  2463   0019B0  EFDC  F00C         	goto	u3590
  2464   0019B4                     u3591:
  2465   0019B4  EFFA  F00C         	goto	l4871
  2466   0019B8                     u3590:
  2467   0019B8                     
  2468                           ; BSR set to: 0
  2469   0019B8  0E04               	movlw	4
  2470   0019BA  1962               	xorwf	(_num_page+2)& (0+255),w,b
  2471   0019BC  1163               	iorwf	(_num_page+3)& (0+255),w,b
  2472   0019BE  B4D8               	btfsc	status,2,c
  2473   0019C0  EFE4  F00C         	goto	u3601
  2474   0019C4  EFE6  F00C         	goto	u3600
  2475   0019C8                     u3601:
  2476   0019C8  EFFA  F00C         	goto	l4871
  2477   0019CC                     u3600:
  2478   0019CC                     
  2479                           ; BSR set to: 0
  2480   0019CC  0E04               	movlw	4
  2481   0019CE  1964               	xorwf	(_num_page+4)& (0+255),w,b
  2482   0019D0  1165               	iorwf	(_num_page+5)& (0+255),w,b
  2483   0019D2  B4D8               	btfsc	status,2,c
  2484   0019D4  EFEE  F00C         	goto	u3611
  2485   0019D8  EFF0  F00C         	goto	u3610
  2486   0019DC                     u3611:
  2487   0019DC  EFFA  F00C         	goto	l4871
  2488   0019E0                     u3610:
  2489   0019E0                     
  2490                           ; BSR set to: 0
  2491   0019E0  0E04               	movlw	4
  2492   0019E2  1966               	xorwf	(_num_page+6)& (0+255),w,b
  2493   0019E4  1167               	iorwf	(_num_page+7)& (0+255),w,b
  2494   0019E6  A4D8               	btfss	status,2,c
  2495   0019E8  EFF8  F00C         	goto	u3621
  2496   0019EC  EFFA  F00C         	goto	u3620
  2497   0019F0                     u3621:
  2498   0019F0  EF89  F00D         	goto	l967
  2499   0019F4                     u3620:
  2500   0019F4                     l4871:
  2501                           
  2502                           ; BSR set to: 0
  2503                           ;main.c: 311:                 {;main.c: 312:                     num16_0 = abs_16(final_
      +                          result_0-ref_0);
  2504   0019F4  519E               	movf	_ref_0& (0+255),w,b
  2505   0019F6  5DA2               	subwf	_final_result_0& (0+255),w,b
  2506   0019F8  6E0A               	movwf	abs_16@num^0,c
  2507   0019FA  519F               	movf	(_ref_0+1)& (0+255),w,b
  2508   0019FC  59A3               	subwfb	(_final_result_0+1)& (0+255),w,b
  2509   0019FE  6E0B               	movwf	(abs_16@num+1)^0,c
  2510   001A00  ECF4  F015         	call	_abs_16	;wreg free
  2511   001A04  C00A  F14A         	movff	?_abs_16,main@num16_0
  2512   001A08  C00B  F14B         	movff	?_abs_16+1,main@num16_0+1
  2513                           
  2514                           ;main.c: 313:                     num16_1 = abs_16(final_result_1-ref_1);
  2515   001A0C  0100               	movlb	0	; () banked
  2516   001A0E  519C               	movf	_ref_1& (0+255),w,b
  2517   001A10  5DA0               	subwf	_final_result_1& (0+255),w,b
  2518   001A12  6E0A               	movwf	abs_16@num^0,c
  2519   001A14  519D               	movf	(_ref_1+1)& (0+255),w,b
  2520   001A16  59A1               	subwfb	(_final_result_1+1)& (0+255),w,b
  2521   001A18  6E0B               	movwf	(abs_16@num+1)^0,c
  2522   001A1A  ECF4  F015         	call	_abs_16	;wreg free
  2523   001A1E  C00A  F14C         	movff	?_abs_16,main@num16_1
  2524   001A22  C00B  F14D         	movff	?_abs_16+1,main@num16_1+1
  2525   001A26                     
  2526                           ;main.c: 314:                     if(num16_1 > num16_0)
  2527   001A26  0101               	movlb	1	; () banked
  2528   001A28  514C               	movf	main@num16_1& (0+255),w,b
  2529   001A2A  5D4A               	subwf	main@num16_0& (0+255),w,b
  2530   001A2C  514D               	movf	(main@num16_1+1)& (0+255),w,b
  2531   001A2E  594B               	subwfb	(main@num16_0+1)& (0+255),w,b
  2532   001A30  B0D8               	btfsc	status,0,c
  2533   001A32  EF1D  F00D         	goto	u3631
  2534   001A36  EF1F  F00D         	goto	u3630
  2535   001A3A                     u3631:
  2536   001A3A  EF54  F00D         	goto	l4887
  2537   001A3E                     u3630:
  2538   001A3E                     
  2539                           ; BSR set to: 1
  2540                           ;main.c: 315:                     {;main.c: 316:                         pushString(eusa
      +                          rt1,"readVal.val=0x");
  2541   001A3E  0E00               	movlw	low _struct_eusart1
  2542   001A40  6E12               	movwf	pushString@targetFIFO^0,c
  2543   001A42  0E02               	movlw	high _struct_eusart1
  2544   001A44  6E13               	movwf	(pushString@targetFIFO+1)^0,c
  2545   001A46  0E06               	movlw	low STR_11
  2546   001A48  6E14               	movwf	pushString@newString^0,c
  2547   001A4A  0E10               	movlw	high STR_11
  2548   001A4C  6E15               	movwf	(pushString@newString+1)^0,c
  2549   001A4E  ECF5  F00E         	call	_pushString	;wreg free
  2550   001A52                     
  2551                           ;main.c: 317:                         send_result[0] = categorize_number((uint8_t)((num1
      +                          6_1&0x07FF)>>3), 1);
  2552   001A52  0E01               	movlw	1
  2553   001A54  6E0A               	movwf	categorize_number@sec^0,c
  2554   001A56  C14C  F0B3         	movff	main@num16_1,??_main
  2555   001A5A  C14D  F0B4         	movff	main@num16_1+1,??_main+1
  2556   001A5E  0100               	movlb	0	; () banked
  2557   001A60  90D8               	bcf	status,0,c
  2558   001A62  33B4               	rrcf	(??_main+1)& (0+255),f,b
  2559   001A64  33B3               	rrcf	??_main& (0+255),f,b
  2560   001A66  90D8               	bcf	status,0,c
  2561   001A68  33B4               	rrcf	(??_main+1)& (0+255),f,b
  2562   001A6A  33B3               	rrcf	??_main& (0+255),f,b
  2563   001A6C  90D8               	bcf	status,0,c
  2564   001A6E  33B4               	rrcf	(??_main+1)& (0+255),f,b
  2565   001A70  33B3               	rrcf	??_main& (0+255),f,b
  2566   001A72  51B3               	movf	??_main& (0+255),w,b
  2567   001A74  EC32  F014         	call	_categorize_number
  2568   001A78  0100               	movlb	0	; () banked
  2569   001A7A  6FAA               	movwf	_send_result& (0+255),b
  2570   001A7C                     
  2571                           ; BSR set to: 0
  2572                           ;main.c: 318:                         send_result[1] = categorize_number((uint8_t)((num1
      +                          6_1&0x07FF)>>3), 0);
  2573   001A7C  0E00               	movlw	0
  2574   001A7E  6E0A               	movwf	categorize_number@sec^0,c
  2575   001A80  C14C  F0B3         	movff	main@num16_1,??_main
  2576   001A84  C14D  F0B4         	movff	main@num16_1+1,??_main+1
  2577   001A88  90D8               	bcf	status,0,c
  2578   001A8A  33B4               	rrcf	(??_main+1)& (0+255),f,b
  2579   001A8C  33B3               	rrcf	??_main& (0+255),f,b
  2580   001A8E  90D8               	bcf	status,0,c
  2581   001A90  33B4               	rrcf	(??_main+1)& (0+255),f,b
  2582   001A92  33B3               	rrcf	??_main& (0+255),f,b
  2583   001A94  90D8               	bcf	status,0,c
  2584   001A96  33B4               	rrcf	(??_main+1)& (0+255),f,b
  2585   001A98  33B3               	rrcf	??_main& (0+255),f,b
  2586   001A9A  51B3               	movf	??_main& (0+255),w,b
  2587   001A9C  EC32  F014         	call	_categorize_number
  2588   001AA0  0100               	movlb	0	; () banked
  2589   001AA2  6FAB               	movwf	(_send_result+1)& (0+255),b
  2590   001AA4  EFC7  F00B         	goto	l4815
  2591   001AA8                     l4887:
  2592                           
  2593                           ; BSR set to: 1
  2594                           ;main.c: 324:                     {;main.c: 326:                         pushString(eusa
      +                          rt1,"readVal.val=0x");
  2595   001AA8  0E00               	movlw	low _struct_eusart1
  2596   001AAA  6E12               	movwf	pushString@targetFIFO^0,c
  2597   001AAC  0E02               	movlw	high _struct_eusart1
  2598   001AAE  6E13               	movwf	(pushString@targetFIFO+1)^0,c
  2599   001AB0  0E06               	movlw	low STR_11
  2600   001AB2  6E14               	movwf	pushString@newString^0,c
  2601   001AB4  0E10               	movlw	high STR_11
  2602   001AB6  6E15               	movwf	(pushString@newString+1)^0,c
  2603   001AB8  ECF5  F00E         	call	_pushString	;wreg free
  2604   001ABC                     
  2605                           ;main.c: 327:                         send_result[0] = categorize_number((uint8_t)((num1
      +                          6_0&0x07FF)>>3), 1);
  2606   001ABC  0E01               	movlw	1
  2607   001ABE  6E0A               	movwf	categorize_number@sec^0,c
  2608   001AC0  C14A  F0B3         	movff	main@num16_0,??_main
  2609   001AC4  C14B  F0B4         	movff	main@num16_0+1,??_main+1
  2610   001AC8  0100               	movlb	0	; () banked
  2611   001ACA  90D8               	bcf	status,0,c
  2612   001ACC  33B4               	rrcf	(??_main+1)& (0+255),f,b
  2613   001ACE  33B3               	rrcf	??_main& (0+255),f,b
  2614   001AD0  90D8               	bcf	status,0,c
  2615   001AD2  33B4               	rrcf	(??_main+1)& (0+255),f,b
  2616   001AD4  33B3               	rrcf	??_main& (0+255),f,b
  2617   001AD6  90D8               	bcf	status,0,c
  2618   001AD8  33B4               	rrcf	(??_main+1)& (0+255),f,b
  2619   001ADA  33B3               	rrcf	??_main& (0+255),f,b
  2620   001ADC  51B3               	movf	??_main& (0+255),w,b
  2621   001ADE  EC32  F014         	call	_categorize_number
  2622   001AE2  0100               	movlb	0	; () banked
  2623   001AE4  6FAA               	movwf	_send_result& (0+255),b
  2624   001AE6                     
  2625                           ; BSR set to: 0
  2626                           ;main.c: 328:                         send_result[1] = categorize_number((uint8_t)((num1
      +                          6_0&0x07FF)>>3), 0);
  2627   001AE6  0E00               	movlw	0
  2628   001AE8  6E0A               	movwf	categorize_number@sec^0,c
  2629   001AEA  C14A  F0B3         	movff	main@num16_0,??_main
  2630   001AEE  C14B  F0B4         	movff	main@num16_0+1,??_main+1
  2631   001AF2  90D8               	bcf	status,0,c
  2632   001AF4  33B4               	rrcf	(??_main+1)& (0+255),f,b
  2633   001AF6  33B3               	rrcf	??_main& (0+255),f,b
  2634   001AF8  90D8               	bcf	status,0,c
  2635   001AFA  33B4               	rrcf	(??_main+1)& (0+255),f,b
  2636   001AFC  33B3               	rrcf	??_main& (0+255),f,b
  2637   001AFE  90D8               	bcf	status,0,c
  2638   001B00  33B4               	rrcf	(??_main+1)& (0+255),f,b
  2639   001B02  33B3               	rrcf	??_main& (0+255),f,b
  2640   001B04  51B3               	movf	??_main& (0+255),w,b
  2641   001B06  EC32  F014         	call	_categorize_number
  2642   001B0A  0100               	movlb	0	; () banked
  2643   001B0C  6FAB               	movwf	(_send_result+1)& (0+255),b
  2644   001B0E  EFC7  F00B         	goto	l4815
  2645   001B12                     l967:
  2646   001B12                     l4899:
  2647                           
  2648                           ;main.c: 337:         if(uart1RxCount > 0)
  2649   001B12  5046               	movf	_uart1RxCount^0,w,c	;volatile
  2650   001B14  B4D8               	btfsc	status,2,c
  2651   001B16  EF8F  F00D         	goto	u3641
  2652   001B1A  EF91  F00D         	goto	u3640
  2653   001B1E                     u3641:
  2654   001B1E  EFB9  F00D         	goto	l4909
  2655   001B22                     u3640:
  2656   001B22                     
  2657                           ;main.c: 338:         {;main.c: 339:             num_page[pos_num_page] = UART1_Read();
  2658   001B22  ECA3  F015         	call	_UART1_Read	;wreg free
  2659   001B26  0100               	movlb	0	; () banked
  2660   001B28  6FB3               	movwf	??_main& (0+255),b
  2661   001B2A  6BB4               	clrf	(??_main+1)& (0+255),b
  2662   001B2C  90D8               	bcf	status,0,c
  2663   001B2E  3590               	rlcf	_pos_num_page& (0+255),w,b
  2664   001B30  6ED9               	movwf	fsr2l,c
  2665   001B32  3591               	rlcf	(_pos_num_page+1)& (0+255),w,b
  2666   001B34  6EDA               	movwf	fsr2h,c
  2667   001B36  0E60               	movlw	low _num_page
  2668   001B38  26D9               	addwf	fsr2l,f,c
  2669   001B3A  0E00               	movlw	high _num_page
  2670   001B3C  22DA               	addwfc	fsr2h,f,c
  2671   001B3E  0060  F2CF  FFDE   	movff	??_main,postinc2
  2672   001B44  0060  F2D3  FFDD   	movff	??_main+1,postdec2
  2673   001B4A                     
  2674                           ; BSR set to: 0
  2675                           ;main.c: 340:             pos_num_page++;
  2676   001B4A  4B90               	infsnz	_pos_num_page& (0+255),f,b
  2677   001B4C  2B91               	incf	(_pos_num_page+1)& (0+255),f,b
  2678   001B4E                     
  2679                           ; BSR set to: 0
  2680                           ;main.c: 341:             if(pos_num_page >= 4)
  2681   001B4E  BF91               	btfsc	(_pos_num_page+1)& (0+255),7,b
  2682   001B50  EFB3  F00D         	goto	u3651
  2683   001B54  5191               	movf	(_pos_num_page+1)& (0+255),w,b
  2684   001B56  E109               	bnz	u3650
  2685   001B58  0E04               	movlw	4
  2686   001B5A  5D90               	subwf	_pos_num_page& (0+255),w,b
  2687   001B5C  A0D8               	btfss	status,0,c
  2688   001B5E  EFB3  F00D         	goto	u3651
  2689   001B62  EFB5  F00D         	goto	u3650
  2690   001B66                     u3651:
  2691   001B66  EFB9  F00D         	goto	l4909
  2692   001B6A                     u3650:
  2693   001B6A                     
  2694                           ; BSR set to: 0
  2695                           ;main.c: 342:             {;main.c: 343:                 pos_num_page = 0;
  2696   001B6A  0E00               	movlw	0
  2697   001B6C  6F91               	movwf	(_pos_num_page+1)& (0+255),b
  2698   001B6E  0E00               	movlw	0
  2699   001B70  6F90               	movwf	_pos_num_page& (0+255),b
  2700   001B72                     l4909:
  2701                           
  2702                           ;main.c: 346:         if(!(PIE3bits.U1TXIE) && statusFIFO(eusart1) && (send_fifo == 1)){
  2703   001B72  0139               	movlb	57	; () banked
  2704   001B74  B993               	btfsc	147,4,b	;volatile
  2705   001B76  EFBF  F00D         	goto	u3661
  2706   001B7A  EFC1  F00D         	goto	u3660
  2707   001B7E                     u3661:
  2708   001B7E  EF9D  F008         	goto	l4659
  2709   001B82                     u3660:
  2710   001B82                     
  2711                           ; BSR set to: 57
  2712   001B82  0E00               	movlw	low _struct_eusart1
  2713   001B84  6E0A               	movwf	statusFIFO@targetFIFO^0,c
  2714   001B86  0E02               	movlw	high _struct_eusart1
  2715   001B88  6E0B               	movwf	(statusFIFO@targetFIFO+1)^0,c
  2716   001B8A  EC11  F017         	call	_statusFIFO	;wreg free
  2717   001B8E  0900               	iorlw	0
  2718   001B90  B4D8               	btfsc	status,2,c
  2719   001B92  EFCD  F00D         	goto	u3671
  2720   001B96  EFCF  F00D         	goto	u3670
  2721   001B9A                     u3671:
  2722   001B9A  EF9D  F008         	goto	l4659
  2723   001B9E                     u3670:
  2724   001B9E  0100               	movlb	0	; () banked
  2725   001BA0  0592               	decf	_send_fifo& (0+255),w,b
  2726   001BA2  1193               	iorwf	(_send_fifo+1)& (0+255),w,b
  2727   001BA4  A4D8               	btfss	status,2,c
  2728   001BA6  EFD7  F00D         	goto	u3681
  2729   001BAA  EFD9  F00D         	goto	u3680
  2730   001BAE                     u3681:
  2731   001BAE  EF9D  F008         	goto	l4659
  2732   001BB2                     u3680:
  2733   001BB2                     
  2734                           ; BSR set to: 0
  2735                           ;main.c: 347:             sent_fifo[3] = sent_fifo[2];
  2736   001BB2  C086  F087         	movff	_sent_fifo+2,_sent_fifo+3
  2737                           
  2738                           ;main.c: 348:             sent_fifo[2] = sent_fifo[1];
  2739   001BB6  C085  F086         	movff	_sent_fifo+1,_sent_fifo+2
  2740                           
  2741                           ;main.c: 349:             sent_fifo[1] = sent_fifo[0];
  2742   001BBA  C084  F085         	movff	_sent_fifo,_sent_fifo+1
  2743   001BBE                     
  2744                           ; BSR set to: 0
  2745                           ;main.c: 350:             sent_fifo[0] = popData(eusart1);
  2746   001BBE  0E00               	movlw	low _struct_eusart1
  2747   001BC0  6E12               	movwf	popData@targetFIFO^0,c
  2748   001BC2  0E02               	movlw	high _struct_eusart1
  2749   001BC4  6E13               	movwf	(popData@targetFIFO+1)^0,c
  2750   001BC6  EC17  F011         	call	_popData	;wreg free
  2751   001BCA  0100               	movlb	0	; () banked
  2752   001BCC  6F84               	movwf	_sent_fifo& (0+255),b
  2753   001BCE                     
  2754                           ; BSR set to: 0
  2755                           ;main.c: 351:             if(!((sent_fifo[3] == 0xFF) && (sent_fifo[2] == 0xFF) && (sent
      +                          _fifo[1] == 0xFF) && (sent_fifo[0] == ' ')))
  2756   001BCE  2987               	incf	(_sent_fifo+3)& (0+255),w,b
  2757   001BD0  A4D8               	btfss	status,2,c
  2758   001BD2  EFED  F00D         	goto	u3691
  2759   001BD6  EFEF  F00D         	goto	u3690
  2760   001BDA                     u3691:
  2761   001BDA  EF08  F00E         	goto	l4927
  2762   001BDE                     u3690:
  2763   001BDE                     
  2764                           ; BSR set to: 0
  2765   001BDE  2986               	incf	(_sent_fifo+2)& (0+255),w,b
  2766   001BE0  A4D8               	btfss	status,2,c
  2767   001BE2  EFF5  F00D         	goto	u3701
  2768   001BE6  EFF7  F00D         	goto	u3700
  2769   001BEA                     u3701:
  2770   001BEA  EF08  F00E         	goto	l4927
  2771   001BEE                     u3700:
  2772   001BEE                     
  2773                           ; BSR set to: 0
  2774   001BEE  2985               	incf	(_sent_fifo+1)& (0+255),w,b
  2775   001BF0  A4D8               	btfss	status,2,c
  2776   001BF2  EFFD  F00D         	goto	u3711
  2777   001BF6  EFFF  F00D         	goto	u3710
  2778   001BFA                     u3711:
  2779   001BFA  EF08  F00E         	goto	l4927
  2780   001BFE                     u3710:
  2781   001BFE                     
  2782                           ; BSR set to: 0
  2783   001BFE  0E20               	movlw	32
  2784   001C00  1984               	xorwf	_sent_fifo& (0+255),w,b
  2785   001C02  B4D8               	btfsc	status,2,c
  2786   001C04  EF06  F00E         	goto	u3721
  2787   001C08  EF08  F00E         	goto	u3720
  2788   001C0C                     u3721:
  2789   001C0C  EF9D  F008         	goto	l4659
  2790   001C10                     u3720:
  2791   001C10                     l4927:
  2792                           
  2793                           ; BSR set to: 0
  2794                           ;main.c: 352:             {;main.c: 353:                 UART1_Write(sent_fifo[0]);
  2795   001C10  5184               	movf	_sent_fifo& (0+255),w,b
  2796   001C12  EC1E  F015         	call	_UART1_Write
  2797   001C16  EF9D  F008         	goto	l4659
  2798   001C1A  EF0D  F000         	goto	start
  2799   001C1E                     __end_of_main:
  2800                           	callstack 0
  2801                           
  2802 ;; *************** function _statusFIFO *****************
  2803 ;; Defined at:
  2804 ;;		line 668 in file "main.c"
  2805 ;; Parameters:    Size  Location     Type
  2806 ;;  targetFIFO      2    9[COMRAM] PTR struct FIFO_t
  2807 ;;		 -> struct_eusart1(206), 
  2808 ;; Auto vars:     Size  Location     Type
  2809 ;;		None
  2810 ;; Return value:  Size  Location     Type
  2811 ;;                  1    wreg      _Bool 
  2812 ;; Registers used:
  2813 ;;		wreg, fsr2l, fsr2h, status,2, status,0
  2814 ;; Tracked objects:
  2815 ;;		On entry : 0/0
  2816 ;;		On exit  : 0/0
  2817 ;;		Unchanged: 0/0
  2818 ;; Data sizes:     COMRAM   BANK0   BANK1   BANK2   BANK3   BANK4   BANK5   BANK6   BANK7   BANK8   BANK9  BANK10  BANK1
      +1  BANK12  BANK13  BANK14  BANK15
  2819 ;;      Params:         2       0       0       0       0       0       0       0       0       0       0       0       
      +0       0       0       0       0
  2820 ;;      Locals:         0       0       0       0       0       0       0       0       0       0       0       0       
      +0       0       0       0       0
  2821 ;;      Temps:          0       0       0       0       0       0       0       0       0       0       0       0       
      +0       0       0       0       0
  2822 ;;      Totals:         2       0       0       0       0       0       0       0       0       0       0       0       
      +0       0       0       0       0
  2823 ;;Total ram usage:        2 bytes
  2824 ;; Hardware stack levels used: 1
  2825 ;; Hardware stack levels required when called: 4
  2826 ;; This function calls:
  2827 ;;		Nothing
  2828 ;; This function is called by:
  2829 ;;		_main
  2830 ;; This function uses a non-reentrant model
  2831 ;;
  2832                           
  2833                           	psect	text1
  2834   002E22                     __ptext1:
  2835                           	callstack 0
  2836   002E22                     _statusFIFO:
  2837                           	callstack 26
  2838   002E22                     
  2839                           ;main.c: 669:     return (targetFIFO->newData);
  2840   002E22  EE20 F0CC          	lfsr	2,204
  2841   002E26  500A               	movf	statusFIFO@targetFIFO^0,w,c
  2842   002E28  26D9               	addwf	fsr2l,f,c
  2843   002E2A  500B               	movf	(statusFIFO@targetFIFO+1)^0,w,c
  2844   002E2C  22DA               	addwfc	fsr2h,f,c
  2845   002E2E  50DF               	movf	indf2,w,c
  2846   002E30  0012               	return		;funcret
  2847   002E32                     __end_of_statusFIFO:
  2848                           	callstack 0
  2849                           
  2850 ;; *************** function _send_uart *****************
  2851 ;; Defined at:
  2852 ;;		line 435 in file "main.c"
  2853 ;; Parameters:    Size  Location     Type
  2854 ;;  str             2   10[COMRAM] PTR unsigned char 
  2855 ;;		 -> STR_4(9), STR_3(9), STR_2(9), STR_1(9), 
  2856 ;;  size            2   12[COMRAM] int 
  2857 ;; Auto vars:     Size  Location     Type
  2858 ;;  i               2   16[COMRAM] int 
  2859 ;; Return value:  Size  Location     Type
  2860 ;;                  1    wreg      void 
  2861 ;; Registers used:
  2862 ;;		wreg, fsr2l, fsr2h, status,2, status,0, tblptrl, tblptrh, tblptru, cstack
  2863 ;; Tracked objects:
  2864 ;;		On entry : 0/0
  2865 ;;		On exit  : 0/0
  2866 ;;		Unchanged: 0/0
  2867 ;; Data sizes:     COMRAM   BANK0   BANK1   BANK2   BANK3   BANK4   BANK5   BANK6   BANK7   BANK8   BANK9  BANK10  BANK1
      +1  BANK12  BANK13  BANK14  BANK15
  2868 ;;      Params:         4       0       0       0       0       0       0       0       0       0       0       0       
      +0       0       0       0       0
  2869 ;;      Locals:         2       0       0       0       0       0       0       0       0       0       0       0       
      +0       0       0       0       0
  2870 ;;      Temps:          2       0       0       0       0       0       0       0       0       0       0       0       
      +0       0       0       0       0
  2871 ;;      Totals:         8       0       0       0       0       0       0       0       0       0       0       0       
      +0       0       0       0       0
  2872 ;;Total ram usage:        8 bytes
  2873 ;; Hardware stack levels used: 1
  2874 ;; Hardware stack levels required when called: 5
  2875 ;; This function calls:
  2876 ;;		_UART1_Write
  2877 ;; This function is called by:
  2878 ;;		_main
  2879 ;; This function uses a non-reentrant model
  2880 ;;
  2881                           
  2882                           	psect	text2
  2883   002AF4                     __ptext2:
  2884                           	callstack 0
  2885   002AF4                     _send_uart:
  2886                           	callstack 25
  2887   002AF4                     
  2888                           ;main.c: 435: void send_uart(char str[], int size);main.c: 436: {;main.c: 439:     for(i
      +                          nt i = 0; i < size; i++)
  2889   002AF4  0E00               	movlw	0
  2890   002AF6  6E12               	movwf	(send_uart@i+1)^0,c
  2891   002AF8  0E00               	movlw	0
  2892   002AFA  6E11               	movwf	send_uart@i^0,c
  2893   002AFC  EF93  F015         	goto	l4331
  2894   002B00                     l4327:
  2895                           
  2896                           ;main.c: 440:     {;main.c: 441:         UART1_Write(str[i]);
  2897   002B00  5011               	movf	send_uart@i^0,w,c
  2898   002B02  240B               	addwf	send_uart@str^0,w,c
  2899   002B04  6E0F               	movwf	??_send_uart^0,c
  2900   002B06  5012               	movf	(send_uart@i+1)^0,w,c
  2901   002B08  200C               	addwfc	(send_uart@str+1)^0,w,c
  2902   002B0A  6E10               	movwf	(??_send_uart+1)^0,c
  2903   002B0C  0060  F03F  FFF6   	movff	??_send_uart,tblptrl
  2904   002B12  0060  F043  FFF7   	movff	??_send_uart+1,tblptrh
  2905   002B18                     	if	1	;Program memory is < 0x10000, tblptru is always zero
  2906   002B18  6AF8               	clrf	tblptru,c
  2907   002B1A                     	endif
  2908   002B1A                     	if	0	;tblptru may be non-zero
  2909   002B1A                     	endif
  2910   002B1A  0008               	tblrd		*
  2911   002B1C  50F5               	movf	tablat,w,c
  2912   002B1E  EC1E  F015         	call	_UART1_Write
  2913   002B22                     
  2914                           ;main.c: 442:     }
  2915   002B22  4A11               	infsnz	send_uart@i^0,f,c
  2916   002B24  2A12               	incf	(send_uart@i+1)^0,f,c
  2917   002B26                     l4331:
  2918   002B26  500D               	movf	send_uart@size^0,w,c
  2919   002B28  5C11               	subwf	send_uart@i^0,w,c
  2920   002B2A  5012               	movf	(send_uart@i+1)^0,w,c
  2921   002B2C  0A80               	xorlw	128
  2922   002B2E  6E0F               	movwf	??_send_uart^0,c
  2923   002B30  500E               	movf	(send_uart@size+1)^0,w,c
  2924   002B32  0A80               	xorlw	128
  2925   002B34  580F               	subwfb	??_send_uart^0,w,c
  2926   002B36  A0D8               	btfss	status,0,c
  2927   002B38  EFA0  F015         	goto	u2801
  2928   002B3C  EFA2  F015         	goto	u2800
  2929   002B40                     u2801:
  2930   002B40  EF80  F015         	goto	l4327
  2931   002B44                     u2800:
  2932   002B44  0012               	return		;funcret
  2933   002B46                     __end_of_send_uart:
  2934                           	callstack 0
  2935                           
  2936 ;; *************** function _send_6F *****************
  2937 ;; Defined at:
  2938 ;;		line 448 in file "main.c"
  2939 ;; Parameters:    Size  Location     Type
  2940 ;;		None
  2941 ;; Auto vars:     Size  Location     Type
  2942 ;;		None
  2943 ;; Return value:  Size  Location     Type
  2944 ;;                  1    wreg      void 
  2945 ;; Registers used:
  2946 ;;		wreg, fsr2l, fsr2h, status,2, status,0, cstack
  2947 ;; Tracked objects:
  2948 ;;		On entry : 0/0
  2949 ;;		On exit  : 0/0
  2950 ;;		Unchanged: 0/0
  2951 ;; Data sizes:     COMRAM   BANK0   BANK1   BANK2   BANK3   BANK4   BANK5   BANK6   BANK7   BANK8   BANK9  BANK10  BANK1
      +1  BANK12  BANK13  BANK14  BANK15
  2952 ;;      Params:         0       0       0       0       0       0       0       0       0       0       0       0       
      +0       0       0       0       0
  2953 ;;      Locals:         0       0       0       0       0       0       0       0       0       0       0       0       
      +0       0       0       0       0
  2954 ;;      Temps:          0       0       0       0       0       0       0       0       0       0       0       0       
      +0       0       0       0       0
  2955 ;;      Totals:         0       0       0       0       0       0       0       0       0       0       0       0       
      +0       0       0       0       0
  2956 ;;Total ram usage:        0 bytes
  2957 ;; Hardware stack levels used: 1
  2958 ;; Hardware stack levels required when called: 5
  2959 ;; This function calls:
  2960 ;;		_UART1_Write
  2961 ;; This function is called by:
  2962 ;;		_main
  2963 ;; This function uses a non-reentrant model
  2964 ;;
  2965                           
  2966                           	psect	text3
  2967   002E0E                     __ptext3:
  2968                           	callstack 0
  2969   002E0E                     _send_6F:
  2970                           	callstack 25
  2971   002E0E                     
  2972                           ;main.c: 450:     UART1_Write(0xFF);
  2973   002E0E  0EFF               	movlw	255
  2974   002E10  EC1E  F015         	call	_UART1_Write
  2975                           
  2976                           ;main.c: 451:     UART1_Write(0xFF);
  2977   002E14  0EFF               	movlw	255
  2978   002E16  EC1E  F015         	call	_UART1_Write
  2979                           
  2980                           ;main.c: 452:     UART1_Write(0xFF);
  2981   002E1A  0EFF               	movlw	255
  2982   002E1C  EC1E  F015         	call	_UART1_Write
  2983   002E20  0012               	return		;funcret
  2984   002E22                     __end_of_send_6F:
  2985                           	callstack 0
  2986                           
  2987 ;; *************** function _reorder_array_pt *****************
  2988 ;; Defined at:
  2989 ;;		line 359 in file "main.c"
  2990 ;; Parameters:    Size  Location     Type
  2991 ;;  arr             2    9[COMRAM] PTR short 
  2992 ;;		 -> main@in_values_1(32), main@in_values_0(32), 
  2993 ;;  array_size      2   11[COMRAM] int 
  2994 ;; Auto vars:     Size  Location     Type
  2995 ;;  i               2   19[COMRAM] int 
  2996 ;;  ptr             2   17[COMRAM] PTR short 
  2997 ;;		 -> main@in_values_1(32), main@in_values_0(32), 
  2998 ;; Return value:  Size  Location     Type
  2999 ;;                  1    wreg      void 
  3000 ;; Registers used:
  3001 ;;		wreg, fsr1l, fsr1h, fsr2l, fsr2h, status,2, status,0
  3002 ;; Tracked objects:
  3003 ;;		On entry : 0/0
  3004 ;;		On exit  : 0/0
  3005 ;;		Unchanged: 0/0
  3006 ;; Data sizes:     COMRAM   BANK0   BANK1   BANK2   BANK3   BANK4   BANK5   BANK6   BANK7   BANK8   BANK9  BANK10  BANK1
      +1  BANK12  BANK13  BANK14  BANK15
  3007 ;;      Params:         4       0       0       0       0       0       0       0       0       0       0       0       
      +0       0       0       0       0
  3008 ;;      Locals:         4       0       0       0       0       0       0       0       0       0       0       0       
      +0       0       0       0       0
  3009 ;;      Temps:          4       0       0       0       0       0       0       0       0       0       0       0       
      +0       0       0       0       0
  3010 ;;      Totals:        12       0       0       0       0       0       0       0       0       0       0       0       
      +0       0       0       0       0
  3011 ;;Total ram usage:       12 bytes
  3012 ;; Hardware stack levels used: 1
  3013 ;; Hardware stack levels required when called: 4
  3014 ;; This function calls:
  3015 ;;		Nothing
  3016 ;; This function is called by:
  3017 ;;		_main
  3018 ;; This function uses a non-reentrant model
  3019 ;;
  3020                           
  3021                           	psect	text4
  3022   0028EC                     __ptext4:
  3023                           	callstack 0
  3024   0028EC                     _reorder_array_pt:
  3025                           	callstack 26
  3026   0028EC                     
  3027                           ;main.c: 359: void reorder_array_pt(int16_t *arr, int array_size);main.c: 360: {;main.c:
      +                           361:     int16_t *ptr = arr + array_size - 2;
  3028   0028EC  C00C  F00E         	movff	reorder_array_pt@array_size,??_reorder_array_pt
  3029   0028F0  C00D  F00F         	movff	reorder_array_pt@array_size+1,??_reorder_array_pt+1
  3030   0028F4  90D8               	bcf	status,0,c
  3031   0028F6  360E               	rlcf	??_reorder_array_pt^0,f,c
  3032   0028F8  360F               	rlcf	(??_reorder_array_pt+1)^0,f,c
  3033   0028FA  500E               	movf	??_reorder_array_pt^0,w,c
  3034   0028FC  240A               	addwf	reorder_array_pt@arr^0,w,c
  3035   0028FE  6E10               	movwf	(??_reorder_array_pt+2)^0,c
  3036   002900  500F               	movf	(??_reorder_array_pt+1)^0,w,c
  3037   002902  200B               	addwfc	(reorder_array_pt@arr+1)^0,w,c
  3038   002904  6E11               	movwf	(??_reorder_array_pt+3)^0,c
  3039   002906  0EFC               	movlw	252
  3040   002908  2410               	addwf	(??_reorder_array_pt+2)^0,w,c
  3041   00290A  6E12               	movwf	reorder_array_pt@ptr^0,c
  3042   00290C  0EFF               	movlw	255
  3043   00290E  2011               	addwfc	(??_reorder_array_pt+3)^0,w,c
  3044   002910  6E13               	movwf	(reorder_array_pt@ptr+1)^0,c
  3045                           
  3046                           ;main.c: 362:     for (int i = array_size - 2; i >= 0; i--)
  3047   002912  0EFE               	movlw	254
  3048   002914  240C               	addwf	reorder_array_pt@array_size^0,w,c
  3049   002916  6E14               	movwf	reorder_array_pt@i^0,c
  3050   002918  0EFF               	movlw	255
  3051   00291A  200D               	addwfc	(reorder_array_pt@array_size+1)^0,w,c
  3052   00291C  6E15               	movwf	(reorder_array_pt@i+1)^0,c
  3053   00291E  BE15               	btfsc	(reorder_array_pt@i+1)^0,7,c
  3054   002920  EF96  F014         	goto	u2830
  3055   002924  EF94  F014         	goto	u2831
  3056   002928                     u2831:
  3057   002928  EF98  F014         	goto	l4355
  3058   00292C                     u2830:
  3059   00292C  EFB8  F014         	goto	l999
  3060   002930                     l4355:
  3061                           
  3062                           ;main.c: 363:     {;main.c: 364:         *(ptr + 1) = *ptr;
  3063   002930  0060  F04B  FFD9   	movff	reorder_array_pt@ptr,fsr2l
  3064   002936  0060  F04F  FFDA   	movff	reorder_array_pt@ptr+1,fsr2h
  3065   00293C  EE10 F002          	lfsr	1,2
  3066   002940  5012               	movf	reorder_array_pt@ptr^0,w,c
  3067   002942  26E1               	addwf	fsr1l,f,c
  3068   002944  5013               	movf	(reorder_array_pt@ptr+1)^0,w,c
  3069   002946  22E2               	addwfc	fsr1h,f,c
  3070   002948  006F FF7B FFE6     	movff	postinc2,postinc1
  3071   00294E  006F FF77 FFE5     	movff	postdec2,postdec1
  3072   002954                     
  3073                           ;main.c: 365:         ptr--;
  3074   002954  0E02               	movlw	2
  3075   002956  5E12               	subwf	reorder_array_pt@ptr^0,f,c
  3076   002958  0E00               	movlw	0
  3077   00295A  5A13               	subwfb	(reorder_array_pt@ptr+1)^0,f,c
  3078   00295C                     
  3079                           ;main.c: 366:     }
  3080   00295C  0614               	decf	reorder_array_pt@i^0,f,c
  3081   00295E  A0D8               	btfss	status,0,c
  3082   002960  0615               	decf	(reorder_array_pt@i+1)^0,f,c
  3083   002962  BE15               	btfsc	(reorder_array_pt@i+1)^0,7,c
  3084   002964  EFB8  F014         	goto	u2840
  3085   002968  EFB6  F014         	goto	u2841
  3086   00296C                     u2841:
  3087   00296C  EF98  F014         	goto	l4355
  3088   002970                     u2840:
  3089   002970                     l999:
  3090   002970  0012               	return		;funcret
  3091   002972                     __end_of_reorder_array_pt:
  3092                           	callstack 0
  3093                           
  3094 ;; *************** function _pushString *****************
  3095 ;; Defined at:
  3096 ;;		line 603 in file "main.c"
  3097 ;; Parameters:    Size  Location     Type
  3098 ;;  targetFIFO      2   17[COMRAM] PTR struct FIFO_t
  3099 ;;		 -> struct_eusart1(206), 
  3100 ;;  newString       2   19[COMRAM] PTR unsigned char 
  3101 ;;		 -> STR_12(15), STR_11(15), STR_10(13), STR_9(10), 
  3102 ;;		 -> STR_8(11), STR_7(11), STR_6(11), send_Fs(4), 
  3103 ;;		 -> send_result(3), STR_5(11), 
  3104 ;; Auto vars:     Size  Location     Type
  3105 ;;  size            2    0        int 
  3106 ;;  letterCounte    1   25[COMRAM] unsigned char 
  3107 ;; Return value:  Size  Location     Type
  3108 ;;                  1    wreg      void 
  3109 ;; Registers used:
  3110 ;;		wreg, fsr0l, fsr0h, fsr1l, fsr1h, fsr2l, fsr2h, status,2, status,0, tblptrl, tblptrh, tblptru, cstack
  3111 ;; Tracked objects:
  3112 ;;		On entry : 0/0
  3113 ;;		On exit  : 0/0
  3114 ;;		Unchanged: 0/0
  3115 ;; Data sizes:     COMRAM   BANK0   BANK1   BANK2   BANK3   BANK4   BANK5   BANK6   BANK7   BANK8   BANK9  BANK10  BANK1
      +1  BANK12  BANK13  BANK14  BANK15
  3116 ;;      Params:         4       0       0       0       0       0       0       0       0       0       0       0       
      +0       0       0       0       0
  3117 ;;      Locals:         1       0       0       0       0       0       0       0       0       0       0       0       
      +0       0       0       0       0
  3118 ;;      Temps:          4       0       0       0       0       0       0       0       0       0       0       0       
      +0       0       0       0       0
  3119 ;;      Totals:         9       0       0       0       0       0       0       0       0       0       0       0       
      +0       0       0       0       0
  3120 ;;Total ram usage:        9 bytes
  3121 ;; Hardware stack levels used: 1
  3122 ;; Hardware stack levels required when called: 5
  3123 ;; This function calls:
  3124 ;;		_checkBoundaries
  3125 ;; This function is called by:
  3126 ;;		_main
  3127 ;; This function uses a non-reentrant model
  3128 ;;
  3129                           
  3130                           	psect	text5
  3131   001DEA                     __ptext5:
  3132                           	callstack 0
  3133   001DEA                     _pushString:
  3134                           	callstack 25
  3135   001DEA                     
  3136                           ;main.c: 604:     BYTE letterCounter = 0;
  3137   001DEA  0E00               	movlw	0
  3138   001DEC  6E1A               	movwf	pushString@letterCounter^0,c
  3139                           
  3140                           ;main.c: 608:     while(((((targetFIFO->writeBuffer) != (targetFIFO->readBuffer))||(targ
      +                          etFIFO->statusFIFO))&&(newString[letterCounter] != '\0'))){
  3141   001DEE  EF3C  F00F         	goto	l4529
  3142   001DF2                     l4519:
  3143   001DF2                     
  3144                           ;main.c: 610:         *(targetFIFO->writeBuffer) = newString[letterCounter];
  3145   001DF2  501A               	movf	pushString@letterCounter^0,w,c
  3146   001DF4  2414               	addwf	pushString@newString^0,w,c
  3147   001DF6  6E16               	movwf	??_pushString^0,c
  3148   001DF8  0E00               	movlw	0
  3149   001DFA  2015               	addwfc	(pushString@newString+1)^0,w,c
  3150   001DFC  6E17               	movwf	(??_pushString+1)^0,c
  3151   001DFE  0060  F05B  FFF6   	movff	??_pushString,tblptrl
  3152   001E04  0060  F05F  FFF7   	movff	??_pushString+1,tblptrh
  3153   001E0A  0E00               	movlw	low (__smallconst shr (0+16))
  3154   001E0C  6EF8               	movwf	tblptru,c
  3155   001E0E  EE20 F0C8          	lfsr	2,200
  3156   001E12  5012               	movf	pushString@targetFIFO^0,w,c
  3157   001E14  26D9               	addwf	fsr2l,f,c
  3158   001E16  5013               	movf	(pushString@targetFIFO+1)^0,w,c
  3159   001E18  22DA               	addwfc	fsr2h,f,c
  3160   001E1A  006F FF78  F018    	movff	postinc2,??_pushString+2
  3161   001E20  006F FF74  F019    	movff	postdec2,??_pushString+3
  3162   001E26  0060  F063  FFD9   	movff	??_pushString+2,fsr2l
  3163   001E2C  0060  F067  FFDA   	movff	??_pushString+3,fsr2h
  3164   001E32  0E0F               	movlw	(high __ramtop+-1)
  3165   001E34  64F7               	cpfsgt	tblptrh,c
  3166   001E36  D003               	bra	u2907
  3167   001E38  0008               	tblrd		*
  3168   001E3A  50F5               	movf	tablat,w,c
  3169   001E3C  D007               	bra	u2900
  3170   001E3E                     u2907:
  3171   001E3E  006F FFDB FFE9     	movff	tblptrl,fsr0l
  3172   001E44  006F FFDF FFEA     	movff	tblptrh,fsr0h
  3173   001E4A  50EF               	movf	indf0,w,c
  3174   001E4C                     u2900:
  3175   001E4C  6EDF               	movwf	indf2,c
  3176   001E4E                     
  3177                           ;main.c: 611:         letterCounter += 1;
  3178   001E4E  2A1A               	incf	pushString@letterCounter^0,f,c
  3179   001E50                     
  3180                           ;main.c: 612:         checkBoundaries(targetFIFO, &(targetFIFO->writeBuffer));
  3181   001E50  C012  F00A         	movff	pushString@targetFIFO,checkBoundaries@targetFIFO
  3182   001E54  C013  F00B         	movff	pushString@targetFIFO+1,checkBoundaries@targetFIFO+1
  3183   001E58  0EC8               	movlw	200
  3184   001E5A  2412               	addwf	pushString@targetFIFO^0,w,c
  3185   001E5C  6E0C               	movwf	checkBoundaries@bufferPointer^0,c
  3186   001E5E  0E00               	movlw	0
  3187   001E60  2013               	addwfc	(pushString@targetFIFO+1)^0,w,c
  3188   001E62  6E0D               	movwf	(checkBoundaries@bufferPointer+1)^0,c
  3189   001E64  ECEE  F014         	call	_checkBoundaries	;wreg free
  3190   001E68                     
  3191                           ;main.c: 613:         (targetFIFO->newData) = 1;
  3192   001E68  EE20 F0CC          	lfsr	2,204
  3193   001E6C  5012               	movf	pushString@targetFIFO^0,w,c
  3194   001E6E  26D9               	addwf	fsr2l,f,c
  3195   001E70  5013               	movf	(pushString@targetFIFO+1)^0,w,c
  3196   001E72  22DA               	addwfc	fsr2h,f,c
  3197   001E74  0E01               	movlw	1
  3198   001E76  6EDF               	movwf	indf2,c
  3199   001E78                     l4529:
  3200                           
  3201                           ;main.c: 608:     while(((((targetFIFO->writeBuffer) != (targetFIFO->readBuffer))||(targ
      +                          etFIFO->statusFIFO))&&(newString[letterCounter] != '\0'))){
  3202   001E78  EE20 F0CA          	lfsr	2,202
  3203   001E7C  5012               	movf	pushString@targetFIFO^0,w,c
  3204   001E7E  26D9               	addwf	fsr2l,f,c
  3205   001E80  5013               	movf	(pushString@targetFIFO+1)^0,w,c
  3206   001E82  22DA               	addwfc	fsr2h,f,c
  3207   001E84  EE10 F0C8          	lfsr	1,200
  3208   001E88  5012               	movf	pushString@targetFIFO^0,w,c
  3209   001E8A  26E1               	addwf	fsr1l,f,c
  3210   001E8C  5013               	movf	(pushString@targetFIFO+1)^0,w,c
  3211   001E8E  22E2               	addwfc	fsr1h,f,c
  3212   001E90  50DE               	movf	postinc2,w,c
  3213   001E92  18E6               	xorwf	postinc1,w,c
  3214   001E94  E107               	bnz	u2911
  3215   001E96  50DE               	movf	postinc2,w,c
  3216   001E98  18E6               	xorwf	postinc1,w,c
  3217   001E9A  A4D8               	btfss	status,2,c
  3218   001E9C  EF52  F00F         	goto	u2911
  3219   001EA0  EF54  F00F         	goto	u2910
  3220   001EA4                     u2911:
  3221   001EA4  EF62  F00F         	goto	l4533
  3222   001EA8                     u2910:
  3223   001EA8  EE20 F0CD          	lfsr	2,205
  3224   001EAC  5012               	movf	pushString@targetFIFO^0,w,c
  3225   001EAE  26D9               	addwf	fsr2l,f,c
  3226   001EB0  5013               	movf	(pushString@targetFIFO+1)^0,w,c
  3227   001EB2  22DA               	addwfc	fsr2h,f,c
  3228   001EB4  50DF               	movf	indf2,w,c
  3229   001EB6  B4D8               	btfsc	status,2,c
  3230   001EB8  EF60  F00F         	goto	u2921
  3231   001EBC  EF62  F00F         	goto	u2920
  3232   001EC0                     u2921:
  3233   001EC0  EF85  F00F         	goto	l4535
  3234   001EC4                     u2920:
  3235   001EC4                     l4533:
  3236   001EC4  501A               	movf	pushString@letterCounter^0,w,c
  3237   001EC6  2414               	addwf	pushString@newString^0,w,c
  3238   001EC8  6E16               	movwf	??_pushString^0,c
  3239   001ECA  0E00               	movlw	0
  3240   001ECC  2015               	addwfc	(pushString@newString+1)^0,w,c
  3241   001ECE  6E17               	movwf	(??_pushString+1)^0,c
  3242   001ED0  0060  F05B  FFF6   	movff	??_pushString,tblptrl
  3243   001ED6  0060  F05F  FFF7   	movff	??_pushString+1,tblptrh
  3244   001EDC  0E00               	movlw	low (__smallconst shr (0+16))
  3245   001EDE  6EF8               	movwf	tblptru,c
  3246   001EE0  0E0F               	movlw	(high __ramtop+-1)
  3247   001EE2  64F7               	cpfsgt	tblptrh,c
  3248   001EE4  D003               	bra	u2937
  3249   001EE6  0008               	tblrd		*
  3250   001EE8  50F5               	movf	tablat,w,c
  3251   001EEA  D007               	bra	u2930
  3252   001EEC                     u2937:
  3253   001EEC  006F FFDB FFE9     	movff	tblptrl,fsr0l
  3254   001EF2  006F FFDF FFEA     	movff	tblptrh,fsr0h
  3255   001EF8  50EF               	movf	indf0,w,c
  3256   001EFA                     u2930:
  3257   001EFA  0900               	iorlw	0
  3258   001EFC  A4D8               	btfss	status,2,c
  3259   001EFE  EF83  F00F         	goto	u2941
  3260   001F02  EF85  F00F         	goto	u2940
  3261   001F06                     u2941:
  3262   001F06  EFF9  F00E         	goto	l4519
  3263   001F0A                     u2940:
  3264   001F0A                     l4535:
  3265                           
  3266                           ;main.c: 616:     if((targetFIFO->writeBuffer) == (targetFIFO->readBuffer)){
  3267   001F0A  EE20 F0CA          	lfsr	2,202
  3268   001F0E  5012               	movf	pushString@targetFIFO^0,w,c
  3269   001F10  26D9               	addwf	fsr2l,f,c
  3270   001F12  5013               	movf	(pushString@targetFIFO+1)^0,w,c
  3271   001F14  22DA               	addwfc	fsr2h,f,c
  3272   001F16  EE10 F0C8          	lfsr	1,200
  3273   001F1A  5012               	movf	pushString@targetFIFO^0,w,c
  3274   001F1C  26E1               	addwf	fsr1l,f,c
  3275   001F1E  5013               	movf	(pushString@targetFIFO+1)^0,w,c
  3276   001F20  22E2               	addwfc	fsr1h,f,c
  3277   001F22  50DE               	movf	postinc2,w,c
  3278   001F24  18E6               	xorwf	postinc1,w,c
  3279   001F26  E107               	bnz	u2951
  3280   001F28  50DE               	movf	postinc2,w,c
  3281   001F2A  18E6               	xorwf	postinc1,w,c
  3282   001F2C  A4D8               	btfss	status,2,c
  3283   001F2E  EF9B  F00F         	goto	u2951
  3284   001F32  EF9D  F00F         	goto	u2950
  3285   001F36                     u2951:
  3286   001F36  EFB2  F00F         	goto	l1055
  3287   001F3A                     u2950:
  3288   001F3A                     
  3289                           ;main.c: 617:         if(targetFIFO->statusFIFO == 1)
  3290   001F3A  EE20 F0CD          	lfsr	2,205
  3291   001F3E  5012               	movf	pushString@targetFIFO^0,w,c
  3292   001F40  26D9               	addwf	fsr2l,f,c
  3293   001F42  5013               	movf	(pushString@targetFIFO+1)^0,w,c
  3294   001F44  22DA               	addwfc	fsr2h,f,c
  3295   001F46  04DE               	decf	postinc2,w,c
  3296   001F48  A4D8               	btfss	status,2,c
  3297   001F4A  EFA9  F00F         	goto	u2961
  3298   001F4E  EFAB  F00F         	goto	u2960
  3299   001F52                     u2961:
  3300   001F52  EFB2  F00F         	goto	l1055
  3301   001F56                     u2960:
  3302   001F56                     
  3303                           ;main.c: 618:             targetFIFO->statusFIFO = 0;
  3304   001F56  EE20 F0CD          	lfsr	2,205
  3305   001F5A  5012               	movf	pushString@targetFIFO^0,w,c
  3306   001F5C  26D9               	addwf	fsr2l,f,c
  3307   001F5E  5013               	movf	(pushString@targetFIFO+1)^0,w,c
  3308   001F60  22DA               	addwfc	fsr2h,f,c
  3309   001F62  6ADF               	clrf	indf2,c
  3310   001F64                     l1055:
  3311   001F64  0012               	return		;funcret
  3312   001F66                     __end_of_pushString:
  3313                           	callstack 0
  3314                           
  3315 ;; *************** function _popData *****************
  3316 ;; Defined at:
  3317 ;;		line 645 in file "main.c"
  3318 ;; Parameters:    Size  Location     Type
  3319 ;;  targetFIFO      2   17[COMRAM] PTR struct FIFO_t
  3320 ;;		 -> struct_eusart1(206), 
  3321 ;; Auto vars:     Size  Location     Type
  3322 ;;  currentChar     1   23[COMRAM] unsigned char 
  3323 ;; Return value:  Size  Location     Type
  3324 ;;                  1    wreg      unsigned char 
  3325 ;; Registers used:
  3326 ;;		wreg, fsr1l, fsr1h, fsr2l, fsr2h, status,2, status,0, cstack
  3327 ;; Tracked objects:
  3328 ;;		On entry : 0/0
  3329 ;;		On exit  : 0/0
  3330 ;;		Unchanged: 0/0
  3331 ;; Data sizes:     COMRAM   BANK0   BANK1   BANK2   BANK3   BANK4   BANK5   BANK6   BANK7   BANK8   BANK9  BANK10  BANK1
      +1  BANK12  BANK13  BANK14  BANK15
  3332 ;;      Params:         2       0       0       0       0       0       0       0       0       0       0       0       
      +0       0       0       0       0
  3333 ;;      Locals:         1       0       0       0       0       0       0       0       0       0       0       0       
      +0       0       0       0       0
  3334 ;;      Temps:          4       0       0       0       0       0       0       0       0       0       0       0       
      +0       0       0       0       0
  3335 ;;      Totals:         7       0       0       0       0       0       0       0       0       0       0       0       
      +0       0       0       0       0
  3336 ;;Total ram usage:        7 bytes
  3337 ;; Hardware stack levels used: 1
  3338 ;; Hardware stack levels required when called: 5
  3339 ;; This function calls:
  3340 ;;		_checkBoundaries
  3341 ;; This function is called by:
  3342 ;;		_main
  3343 ;; This function uses a non-reentrant model
  3344 ;;
  3345                           
  3346                           	psect	text6
  3347   00222E                     __ptext6:
  3348                           	callstack 0
  3349   00222E                     _popData:
  3350                           	callstack 25
  3351   00222E                     
  3352                           ;main.c: 646:     BYTE currentChar = ' ';
  3353   00222E  0E20               	movlw	32
  3354   002230  6E18               	movwf	popData@currentChar^0,c
  3355   002232                     
  3356                           ;main.c: 647:     if((targetFIFO->writeBuffer) != (targetFIFO->readBuffer)||(!(targetFIF
      +                          O->statusFIFO))){
  3357   002232  EE20 F0CA          	lfsr	2,202
  3358   002236  5012               	movf	popData@targetFIFO^0,w,c
  3359   002238  26D9               	addwf	fsr2l,f,c
  3360   00223A  5013               	movf	(popData@targetFIFO+1)^0,w,c
  3361   00223C  22DA               	addwfc	fsr2h,f,c
  3362   00223E  EE10 F0C8          	lfsr	1,200
  3363   002242  5012               	movf	popData@targetFIFO^0,w,c
  3364   002244  26E1               	addwf	fsr1l,f,c
  3365   002246  5013               	movf	(popData@targetFIFO+1)^0,w,c
  3366   002248  22E2               	addwfc	fsr1h,f,c
  3367   00224A  50DE               	movf	postinc2,w,c
  3368   00224C  18E6               	xorwf	postinc1,w,c
  3369   00224E  E107               	bnz	u3001
  3370   002250  50DE               	movf	postinc2,w,c
  3371   002252  18E6               	xorwf	postinc1,w,c
  3372   002254  A4D8               	btfss	status,2,c
  3373   002256  EF2F  F011         	goto	u3001
  3374   00225A  EF31  F011         	goto	u3000
  3375   00225E                     u3001:
  3376   00225E  EF3F  F011         	goto	l4573
  3377   002262                     u3000:
  3378   002262  EE20 F0CD          	lfsr	2,205
  3379   002266  5012               	movf	popData@targetFIFO^0,w,c
  3380   002268  26D9               	addwf	fsr2l,f,c
  3381   00226A  5013               	movf	(popData@targetFIFO+1)^0,w,c
  3382   00226C  22DA               	addwfc	fsr2h,f,c
  3383   00226E  50DF               	movf	indf2,w,c
  3384   002270  A4D8               	btfss	status,2,c
  3385   002272  EF3D  F011         	goto	u3011
  3386   002276  EF3F  F011         	goto	u3010
  3387   00227A                     u3011:
  3388   00227A  EF61  F011         	goto	l4577
  3389   00227E                     u3010:
  3390   00227E                     l4573:
  3391                           
  3392                           ;main.c: 648:         currentChar = *(targetFIFO->readBuffer);
  3393   00227E  EE20 F0CA          	lfsr	2,202
  3394   002282  5012               	movf	popData@targetFIFO^0,w,c
  3395   002284  26D9               	addwf	fsr2l,f,c
  3396   002286  5013               	movf	(popData@targetFIFO+1)^0,w,c
  3397   002288  22DA               	addwfc	fsr2h,f,c
  3398   00228A  006F FF78  F014    	movff	postinc2,??_popData
  3399   002290  006F FF74  F015    	movff	postdec2,??_popData+1
  3400   002296  0060  F053  FFD9   	movff	??_popData,fsr2l
  3401   00229C  0060  F057  FFDA   	movff	??_popData+1,fsr2h
  3402   0022A2  50DF               	movf	indf2,w,c
  3403   0022A4  6E18               	movwf	popData@currentChar^0,c
  3404   0022A6                     
  3405                           ;main.c: 649:         checkBoundaries(targetFIFO, &(targetFIFO->readBuffer));
  3406   0022A6  C012  F00A         	movff	popData@targetFIFO,checkBoundaries@targetFIFO
  3407   0022AA  C013  F00B         	movff	popData@targetFIFO+1,checkBoundaries@targetFIFO+1
  3408   0022AE  0ECA               	movlw	202
  3409   0022B0  2412               	addwf	popData@targetFIFO^0,w,c
  3410   0022B2  6E0C               	movwf	checkBoundaries@bufferPointer^0,c
  3411   0022B4  0E00               	movlw	0
  3412   0022B6  2013               	addwfc	(popData@targetFIFO+1)^0,w,c
  3413   0022B8  6E0D               	movwf	(checkBoundaries@bufferPointer+1)^0,c
  3414   0022BA  ECEE  F014         	call	_checkBoundaries	;wreg free
  3415                           
  3416                           ;main.c: 650:     }
  3417   0022BE  EF68  F011         	goto	l4579
  3418   0022C2                     l4577:
  3419                           
  3420                           ;main.c: 652:         (targetFIFO->newData) = 0;
  3421   0022C2  EE20 F0CC          	lfsr	2,204
  3422   0022C6  5012               	movf	popData@targetFIFO^0,w,c
  3423   0022C8  26D9               	addwf	fsr2l,f,c
  3424   0022CA  5013               	movf	(popData@targetFIFO+1)^0,w,c
  3425   0022CC  22DA               	addwfc	fsr2h,f,c
  3426   0022CE  6ADF               	clrf	indf2,c
  3427   0022D0                     l4579:
  3428                           
  3429                           ;main.c: 654:     if((targetFIFO->writeBuffer) == (targetFIFO->readBuffer)){
  3430   0022D0  EE20 F0CA          	lfsr	2,202
  3431   0022D4  5012               	movf	popData@targetFIFO^0,w,c
  3432   0022D6  26D9               	addwf	fsr2l,f,c
  3433   0022D8  5013               	movf	(popData@targetFIFO+1)^0,w,c
  3434   0022DA  22DA               	addwfc	fsr2h,f,c
  3435   0022DC  EE10 F0C8          	lfsr	1,200
  3436   0022E0  5012               	movf	popData@targetFIFO^0,w,c
  3437   0022E2  26E1               	addwf	fsr1l,f,c
  3438   0022E4  5013               	movf	(popData@targetFIFO+1)^0,w,c
  3439   0022E6  22E2               	addwfc	fsr1h,f,c
  3440   0022E8  50DE               	movf	postinc2,w,c
  3441   0022EA  18E6               	xorwf	postinc1,w,c
  3442   0022EC  E107               	bnz	u3021
  3443   0022EE  50DE               	movf	postinc2,w,c
  3444   0022F0  18E6               	xorwf	postinc1,w,c
  3445   0022F2  A4D8               	btfss	status,2,c
  3446   0022F4  EF7E  F011         	goto	u3021
  3447   0022F8  EF80  F011         	goto	u3020
  3448   0022FC                     u3021:
  3449   0022FC  EF96  F011         	goto	l4585
  3450   002300                     u3020:
  3451   002300                     
  3452                           ;main.c: 655:         if(targetFIFO->statusFIFO == 0)
  3453   002300  EE20 F0CD          	lfsr	2,205
  3454   002304  5012               	movf	popData@targetFIFO^0,w,c
  3455   002306  26D9               	addwf	fsr2l,f,c
  3456   002308  5013               	movf	(popData@targetFIFO+1)^0,w,c
  3457   00230A  22DA               	addwfc	fsr2h,f,c
  3458   00230C  50DF               	movf	indf2,w,c
  3459   00230E  A4D8               	btfss	status,2,c
  3460   002310  EF8C  F011         	goto	u3031
  3461   002314  EF8E  F011         	goto	u3030
  3462   002318                     u3031:
  3463   002318  EF96  F011         	goto	l4585
  3464   00231C                     u3030:
  3465   00231C                     
  3466                           ;main.c: 656:             targetFIFO->statusFIFO = 1;
  3467   00231C  EE20 F0CD          	lfsr	2,205
  3468   002320  5012               	movf	popData@targetFIFO^0,w,c
  3469   002322  26D9               	addwf	fsr2l,f,c
  3470   002324  5013               	movf	(popData@targetFIFO+1)^0,w,c
  3471   002326  22DA               	addwfc	fsr2h,f,c
  3472   002328  0E01               	movlw	1
  3473   00232A  6EDF               	movwf	indf2,c
  3474   00232C                     l4585:
  3475                           
  3476                           ;main.c: 658:     return currentChar;
  3477   00232C  5018               	movf	popData@currentChar^0,w,c
  3478   00232E  0012               	return		;funcret
  3479   002330                     __end_of_popData:
  3480                           	callstack 0
  3481                           
  3482 ;; *************** function _checkBoundaries *****************
  3483 ;; Defined at:
  3484 ;;		line 660 in file "main.c"
  3485 ;; Parameters:    Size  Location     Type
  3486 ;;  targetFIFO      2    9[COMRAM] PTR struct FIFO_t
  3487 ;;		 -> struct_eusart1(206), 
  3488 ;;  bufferPointe    2   11[COMRAM] PTR PTR unsigned char 
  3489 ;;		 -> struct_eusart1(206), 
  3490 ;; Auto vars:     Size  Location     Type
  3491 ;;		None
  3492 ;; Return value:  Size  Location     Type
  3493 ;;                  1    wreg      void 
  3494 ;; Registers used:
  3495 ;;		wreg, fsr2l, fsr2h, status,2, status,0
  3496 ;; Tracked objects:
  3497 ;;		On entry : 0/0
  3498 ;;		On exit  : 0/0
  3499 ;;		Unchanged: 0/0
  3500 ;; Data sizes:     COMRAM   BANK0   BANK1   BANK2   BANK3   BANK4   BANK5   BANK6   BANK7   BANK8   BANK9  BANK10  BANK1
      +1  BANK12  BANK13  BANK14  BANK15
  3501 ;;      Params:         4       0       0       0       0       0       0       0       0       0       0       0       
      +0       0       0       0       0
  3502 ;;      Locals:         0       0       0       0       0       0       0       0       0       0       0       0       
      +0       0       0       0       0
  3503 ;;      Temps:          4       0       0       0       0       0       0       0       0       0       0       0       
      +0       0       0       0       0
  3504 ;;      Totals:         8       0       0       0       0       0       0       0       0       0       0       0       
      +0       0       0       0       0
  3505 ;;Total ram usage:        8 bytes
  3506 ;; Hardware stack levels used: 1
  3507 ;; Hardware stack levels required when called: 4
  3508 ;; This function calls:
  3509 ;;		Nothing
  3510 ;; This function is called by:
  3511 ;;		_pushString
  3512 ;;		_popData
  3513 ;;		_pushInteger
  3514 ;; This function uses a non-reentrant model
  3515 ;;
  3516                           
  3517                           	psect	text7
  3518   0029DC                     __ptext7:
  3519                           	callstack 0
  3520   0029DC                     _checkBoundaries:
  3521                           	callstack 25
  3522   0029DC                     
  3523                           ;main.c: 661:     if(*bufferPointer == &(targetFIFO->buffer[200 -1])){
  3524   0029DC  0EC7               	movlw	199
  3525   0029DE  240A               	addwf	checkBoundaries@targetFIFO^0,w,c
  3526   0029E0  6E0E               	movwf	??_checkBoundaries^0,c
  3527   0029E2  0E00               	movlw	0
  3528   0029E4  200B               	addwfc	(checkBoundaries@targetFIFO+1)^0,w,c
  3529   0029E6  6E0F               	movwf	(??_checkBoundaries+1)^0,c
  3530   0029E8  0060  F033  FFD9   	movff	checkBoundaries@bufferPointer,fsr2l
  3531   0029EE  0060  F037  FFDA   	movff	checkBoundaries@bufferPointer+1,fsr2h
  3532   0029F4  500E               	movf	??_checkBoundaries^0,w,c
  3533   0029F6  18DE               	xorwf	postinc2,w,c
  3534   0029F8  E107               	bnz	u2731
  3535   0029FA  500F               	movf	(??_checkBoundaries+1)^0,w,c
  3536   0029FC  18DE               	xorwf	postinc2,w,c
  3537   0029FE  A4D8               	btfss	status,2,c
  3538   002A00  EF04  F015         	goto	u2731
  3539   002A04  EF06  F015         	goto	u2730
  3540   002A08                     u2731:
  3541   002A08  EF14  F015         	goto	l4257
  3542   002A0C                     u2730:
  3543   002A0C                     
  3544                           ;main.c: 662:         *bufferPointer = &(targetFIFO->buffer[0]);
  3545   002A0C  0060  F033  FFD9   	movff	checkBoundaries@bufferPointer,fsr2l
  3546   002A12  0060  F037  FFDA   	movff	checkBoundaries@bufferPointer+1,fsr2h
  3547   002A18  0060  F02B  FFDE   	movff	checkBoundaries@targetFIFO,postinc2
  3548   002A1E  0060  F02F  FFDD   	movff	checkBoundaries@targetFIFO+1,postdec2
  3549                           
  3550                           ;main.c: 663:     }
  3551   002A24  EF1D  F015         	goto	l1085
  3552   002A28                     l4257:
  3553                           
  3554                           ;main.c: 665:         *bufferPointer += 1;
  3555   002A28  0060  F033  FFD9   	movff	checkBoundaries@bufferPointer,fsr2l
  3556   002A2E  0060  F037  FFDA   	movff	checkBoundaries@bufferPointer+1,fsr2h
  3557   002A34  2ADE               	incf	postinc2,f,c
  3558   002A36  0E00               	movlw	0
  3559   002A38  22DD               	addwfc	postdec2,f,c
  3560   002A3A                     l1085:
  3561   002A3A  0012               	return		;funcret
  3562   002A3C                     __end_of_checkBoundaries:
  3563                           	callstack 0
  3564                           
  3565 ;; *************** function _get_page *****************
  3566 ;; Defined at:
  3567 ;;		line 678 in file "main.c"
  3568 ;; Parameters:    Size  Location     Type
  3569 ;;		None
  3570 ;; Auto vars:     Size  Location     Type
  3571 ;;		None
  3572 ;; Return value:  Size  Location     Type
  3573 ;;                  1    wreg      void 
  3574 ;; Registers used:
  3575 ;;		wreg, fsr2l, fsr2h, status,2, status,0, cstack
  3576 ;; Tracked objects:
  3577 ;;		On entry : 0/0
  3578 ;;		On exit  : 0/0
  3579 ;;		Unchanged: 0/0
  3580 ;; Data sizes:     COMRAM   BANK0   BANK1   BANK2   BANK3   BANK4   BANK5   BANK6   BANK7   BANK8   BANK9  BANK10  BANK1
      +1  BANK12  BANK13  BANK14  BANK15
  3581 ;;      Params:         0       0       0       0       0       0       0       0       0       0       0       0       
      +0       0       0       0       0
  3582 ;;      Locals:         0       0       0       0       0       0       0       0       0       0       0       0       
      +0       0       0       0       0
  3583 ;;      Temps:          2       0       0       0       0       0       0       0       0       0       0       0       
      +0       0       0       0       0
  3584 ;;      Totals:         2       0       0       0       0       0       0       0       0       0       0       0       
      +0       0       0       0       0
  3585 ;;Total ram usage:        2 bytes
  3586 ;; Hardware stack levels used: 1
  3587 ;; Hardware stack levels required when called: 5
  3588 ;; This function calls:
  3589 ;;		_UART1_Write
  3590 ;; This function is called by:
  3591 ;;		_main
  3592 ;; This function uses a non-reentrant model
  3593 ;;
  3594                           
  3595                           	psect	text8
  3596   001F66                     __ptext8:
  3597                           	callstack 0
  3598   001F66                     _get_page:
  3599                           	callstack 25
  3600   001F66                     
  3601                           ;main.c: 680:     switch( state_get_page )
  3602   001F66  EF2A  F010         	goto	l4425
  3603   001F6A                     l4365:
  3604                           
  3605                           ;main.c: 683:             send_fifo = 0;
  3606   001F6A  0E00               	movlw	0
  3607   001F6C  0100               	movlb	0	; () banked
  3608   001F6E  6F93               	movwf	(_send_fifo+1)& (0+255),b
  3609   001F70  0E00               	movlw	0
  3610   001F72  6F92               	movwf	_send_fifo& (0+255),b
  3611   001F74                     
  3612                           ; BSR set to: 0
  3613                           ;main.c: 684:             UART1_Write('p');
  3614   001F74  0E70               	movlw	112
  3615   001F76  EC1E  F015         	call	_UART1_Write
  3616   001F7A                     l4369:
  3617                           
  3618                           ;main.c: 685:             state_get_page++;
  3619   001F7A  4A37               	infsnz	_state_get_page^0,f,c
  3620   001F7C  2A38               	incf	(_state_get_page+1)^0,f,c
  3621                           
  3622                           ;main.c: 686:             break;
  3623   001F7E  EF64  F010         	goto	l1111
  3624   001F82                     l4371:
  3625                           
  3626                           ;main.c: 688:             UART1_Write('r');
  3627   001F82  0E72               	movlw	114
  3628   001F84  EC1E  F015         	call	_UART1_Write
  3629   001F88  EFBD  F00F         	goto	l4369
  3630   001F8C                     l4375:
  3631                           
  3632                           ;main.c: 692:             UART1_Write('i');
  3633   001F8C  0E69               	movlw	105
  3634   001F8E  EC1E  F015         	call	_UART1_Write
  3635   001F92  EFBD  F00F         	goto	l4369
  3636   001F96                     l4379:
  3637                           
  3638                           ;main.c: 696:             UART1_Write('n');
  3639   001F96  0E6E               	movlw	110
  3640   001F98  EC1E  F015         	call	_UART1_Write
  3641   001F9C  EFBD  F00F         	goto	l4369
  3642   001FA0                     l4383:
  3643                           
  3644                           ;main.c: 700:             UART1_Write('t');
  3645   001FA0  0E74               	movlw	116
  3646   001FA2  EC1E  F015         	call	_UART1_Write
  3647   001FA6  EFBD  F00F         	goto	l4369
  3648   001FAA                     l4387:
  3649                           
  3650                           ;main.c: 704:             UART1_Write(' ');
  3651   001FAA  0E20               	movlw	32
  3652   001FAC  EC1E  F015         	call	_UART1_Write
  3653   001FB0  EFBD  F00F         	goto	l4369
  3654   001FB4                     l4391:
  3655                           
  3656                           ;main.c: 708:             UART1_Write('d');
  3657   001FB4  0E64               	movlw	100
  3658   001FB6  EC1E  F015         	call	_UART1_Write
  3659   001FBA  EFBD  F00F         	goto	l4369
  3660   001FBE                     l4395:
  3661                           
  3662                           ;main.c: 712:             UART1_Write('p');
  3663   001FBE  0E70               	movlw	112
  3664   001FC0  EC1E  F015         	call	_UART1_Write
  3665   001FC4  EFBD  F00F         	goto	l4369
  3666   001FC8                     l4399:
  3667                           
  3668                           ;main.c: 716:             UART1_Write(0xFF);
  3669   001FC8  0EFF               	movlw	255
  3670   001FCA  EC1E  F015         	call	_UART1_Write
  3671   001FCE  EFBD  F00F         	goto	l4369
  3672   001FD2                     l4403:
  3673                           
  3674                           ;main.c: 720:             UART1_Write(0xFF);
  3675   001FD2  0EFF               	movlw	255
  3676   001FD4  EC1E  F015         	call	_UART1_Write
  3677   001FD8  EFBD  F00F         	goto	l4369
  3678   001FDC                     l4407:
  3679                           
  3680                           ;main.c: 724:             UART1_Write(0xFF);
  3681   001FDC  0EFF               	movlw	255
  3682   001FDE  EC1E  F015         	call	_UART1_Write
  3683   001FE2                     
  3684                           ;main.c: 729:             ask_page = 0;
  3685   001FE2  0E00               	movlw	0
  3686   001FE4  0100               	movlb	0	; () banked
  3687   001FE6  6FA5               	movwf	(_ask_page+1)& (0+255),b
  3688   001FE8  0E00               	movlw	0
  3689   001FEA  6FA4               	movwf	_ask_page& (0+255),b
  3690   001FEC                     
  3691                           ; BSR set to: 0
  3692                           ;main.c: 730:             if((num_page[0] == 1) || (num_page[1] == 1) || (num_page[2] ==
      +                           1) || (num_page[3] == 1))
  3693   001FEC  0560               	decf	_num_page& (0+255),w,b
  3694   001FEE  1161               	iorwf	(_num_page+1)& (0+255),w,b
  3695   001FF0  B4D8               	btfsc	status,2,c
  3696   001FF2  EFFD  F00F         	goto	u2851
  3697   001FF6  EFFF  F00F         	goto	u2850
  3698   001FFA                     u2851:
  3699   001FFA  EF1A  F010         	goto	l4419
  3700   001FFE                     u2850:
  3701   001FFE                     
  3702                           ; BSR set to: 0
  3703   001FFE  0562               	decf	(_num_page+2)& (0+255),w,b
  3704   002000  1163               	iorwf	(_num_page+3)& (0+255),w,b
  3705   002002  B4D8               	btfsc	status,2,c
  3706   002004  EF06  F010         	goto	u2861
  3707   002008  EF08  F010         	goto	u2860
  3708   00200C                     u2861:
  3709   00200C  EF1A  F010         	goto	l4419
  3710   002010                     u2860:
  3711   002010                     
  3712                           ; BSR set to: 0
  3713   002010  0564               	decf	(_num_page+4)& (0+255),w,b
  3714   002012  1165               	iorwf	(_num_page+5)& (0+255),w,b
  3715   002014  B4D8               	btfsc	status,2,c
  3716   002016  EF0F  F010         	goto	u2871
  3717   00201A  EF11  F010         	goto	u2870
  3718   00201E                     u2871:
  3719   00201E  EF1A  F010         	goto	l4419
  3720   002022                     u2870:
  3721   002022                     
  3722                           ; BSR set to: 0
  3723   002022  0566               	decf	(_num_page+6)& (0+255),w,b
  3724   002024  1167               	iorwf	(_num_page+7)& (0+255),w,b
  3725   002026  A4D8               	btfss	status,2,c
  3726   002028  EF18  F010         	goto	u2881
  3727   00202C  EF1A  F010         	goto	u2880
  3728   002030                     u2881:
  3729   002030  EF20  F010         	goto	l4421
  3730   002034                     u2880:
  3731   002034                     l4419:
  3732                           
  3733                           ; BSR set to: 0
  3734                           ;main.c: 731:             {;main.c: 732:                 ask_gain = 1;
  3735   002034  0E00               	movlw	0
  3736   002036  6F97               	movwf	(_ask_gain+1)& (0+255),b
  3737   002038  0E01               	movlw	1
  3738   00203A  6F96               	movwf	_ask_gain& (0+255),b
  3739                           
  3740                           ;main.c: 733:             }
  3741   00203C  EF24  F010         	goto	l1110
  3742   002040                     l4421:
  3743                           
  3744                           ; BSR set to: 0
  3745                           ;main.c: 735:             {;main.c: 736:                 send_fifo = 1;
  3746   002040  0E00               	movlw	0
  3747   002042  6F93               	movwf	(_send_fifo+1)& (0+255),b
  3748   002044  0E01               	movlw	1
  3749   002046  6F92               	movwf	_send_fifo& (0+255),b
  3750   002048                     l1110:
  3751                           
  3752                           ; BSR set to: 0
  3753                           ;main.c: 739:             state_get_page = 0;
  3754   002048  0E00               	movlw	0
  3755   00204A  6E38               	movwf	(_state_get_page+1)^0,c
  3756   00204C  0E00               	movlw	0
  3757   00204E  6E37               	movwf	_state_get_page^0,c
  3758                           
  3759                           ;main.c: 740:             break;
  3760   002050  EF64  F010         	goto	l1111
  3761   002054                     l4425:
  3762   002054  C037  F00B         	movff	_state_get_page,??_get_page
  3763   002058  C038  F00C         	movff	_state_get_page+1,??_get_page+1
  3764                           
  3765                           ; Switch on 2 bytes has been partitioned into a top level switch of size 1, and 1 sub-sw
      +                          itches
  3766                           ; Switch size 1, requested type "simple"
  3767                           ; Number of cases is 1, Range of values is 0 to 0
  3768                           ; switch strategies available:
  3769                           ; Name         Instructions Cycles
  3770                           ; simple_byte            4     3 (average)
  3771                           ;	Chosen strategy is simple_byte
  3772   00205C  500C               	movf	(??_get_page+1)^0,w,c
  3773   00205E  0A00               	xorlw	0	; case 0
  3774   002060  B4D8               	btfsc	status,2,c
  3775   002062  EF35  F010         	goto	l5039
  3776   002066  EF64  F010         	goto	l1111
  3777   00206A                     l5039:
  3778                           
  3779                           ; Switch size 1, requested type "simple"
  3780                           ; Number of cases is 11, Range of values is 0 to 10
  3781                           ; switch strategies available:
  3782                           ; Name         Instructions Cycles
  3783                           ; simple_byte           34    18 (average)
  3784                           ;	Chosen strategy is simple_byte
  3785   00206A  500B               	movf	??_get_page^0,w,c
  3786   00206C  0A00               	xorlw	0	; case 0
  3787   00206E  B4D8               	btfsc	status,2,c
  3788   002070  EFB5  F00F         	goto	l4365
  3789   002074  0A01               	xorlw	1	; case 1
  3790   002076  B4D8               	btfsc	status,2,c
  3791   002078  EFC1  F00F         	goto	l4371
  3792   00207C  0A03               	xorlw	3	; case 2
  3793   00207E  B4D8               	btfsc	status,2,c
  3794   002080  EFC6  F00F         	goto	l4375
  3795   002084  0A01               	xorlw	1	; case 3
  3796   002086  B4D8               	btfsc	status,2,c
  3797   002088  EFCB  F00F         	goto	l4379
  3798   00208C  0A07               	xorlw	7	; case 4
  3799   00208E  B4D8               	btfsc	status,2,c
  3800   002090  EFD0  F00F         	goto	l4383
  3801   002094  0A01               	xorlw	1	; case 5
  3802   002096  B4D8               	btfsc	status,2,c
  3803   002098  EFD5  F00F         	goto	l4387
  3804   00209C  0A03               	xorlw	3	; case 6
  3805   00209E  B4D8               	btfsc	status,2,c
  3806   0020A0  EFDA  F00F         	goto	l4391
  3807   0020A4  0A01               	xorlw	1	; case 7
  3808   0020A6  B4D8               	btfsc	status,2,c
  3809   0020A8  EFDF  F00F         	goto	l4395
  3810   0020AC  0A0F               	xorlw	15	; case 8
  3811   0020AE  B4D8               	btfsc	status,2,c
  3812   0020B0  EFE4  F00F         	goto	l4399
  3813   0020B4  0A01               	xorlw	1	; case 9
  3814   0020B6  B4D8               	btfsc	status,2,c
  3815   0020B8  EFE9  F00F         	goto	l4403
  3816   0020BC  0A03               	xorlw	3	; case 10
  3817   0020BE  B4D8               	btfsc	status,2,c
  3818   0020C0  EFEE  F00F         	goto	l4407
  3819   0020C4  EF64  F010         	goto	l1111
  3820   0020C8                     l1111:
  3821   0020C8  0012               	return		;funcret
  3822   0020CA                     __end_of_get_page:
  3823                           	callstack 0
  3824                           
  3825 ;; *************** function _get_gain *****************
  3826 ;; Defined at:
  3827 ;;		line 744 in file "main.c"
  3828 ;; Parameters:    Size  Location     Type
  3829 ;;		None
  3830 ;; Auto vars:     Size  Location     Type
  3831 ;;		None
  3832 ;; Return value:  Size  Location     Type
  3833 ;;                  1    wreg      void 
  3834 ;; Registers used:
  3835 ;;		wreg, fsr2l, fsr2h, status,2, status,0, cstack
  3836 ;; Tracked objects:
  3837 ;;		On entry : 0/0
  3838 ;;		On exit  : 0/0
  3839 ;;		Unchanged: 0/0
  3840 ;; Data sizes:     COMRAM   BANK0   BANK1   BANK2   BANK3   BANK4   BANK5   BANK6   BANK7   BANK8   BANK9  BANK10  BANK1
      +1  BANK12  BANK13  BANK14  BANK15
  3841 ;;      Params:         0       0       0       0       0       0       0       0       0       0       0       0       
      +0       0       0       0       0
  3842 ;;      Locals:         0       0       0       0       0       0       0       0       0       0       0       0       
      +0       0       0       0       0
  3843 ;;      Temps:          2       0       0       0       0       0       0       0       0       0       0       0       
      +0       0       0       0       0
  3844 ;;      Totals:         2       0       0       0       0       0       0       0       0       0       0       0       
      +0       0       0       0       0
  3845 ;;Total ram usage:        2 bytes
  3846 ;; Hardware stack levels used: 1
  3847 ;; Hardware stack levels required when called: 5
  3848 ;; This function calls:
  3849 ;;		_UART1_Write
  3850 ;; This function is called by:
  3851 ;;		_main
  3852 ;; This function uses a non-reentrant model
  3853 ;;
  3854                           
  3855                           	psect	text9
  3856   0020CA                     __ptext9:
  3857                           	callstack 0
  3858   0020CA                     _get_gain:
  3859                           	callstack 25
  3860   0020CA                     
  3861                           ;main.c: 746:     switch( state_get_gain )
  3862   0020CA  EFCC  F010         	goto	l4505
  3863   0020CE                     l1116:
  3864   0020CE  8CBD               	bsf	189,6,c	;volatile
  3865   0020D0                     
  3866                           ;main.c: 750:             send_fifo = 0;
  3867   0020D0  0E00               	movlw	0
  3868   0020D2  0100               	movlb	0	; () banked
  3869   0020D4  6F93               	movwf	(_send_fifo+1)& (0+255),b
  3870   0020D6  0E00               	movlw	0
  3871   0020D8  6F92               	movwf	_send_fifo& (0+255),b
  3872   0020DA                     
  3873                           ; BSR set to: 0
  3874                           ;main.c: 751:             UART1_Write('p');
  3875   0020DA  0E70               	movlw	112
  3876   0020DC  EC1E  F015         	call	_UART1_Write
  3877   0020E0                     l4437:
  3878                           
  3879                           ;main.c: 752:             state_get_gain++;
  3880   0020E0  4A35               	infsnz	_state_get_gain^0,f,c
  3881   0020E2  2A36               	incf	(_state_get_gain+1)^0,f,c
  3882                           
  3883                           ;main.c: 753:             break;
  3884   0020E4  EF16  F011         	goto	l1135
  3885   0020E8                     l4439:
  3886                           
  3887                           ;main.c: 755:             UART1_Write('r');
  3888   0020E8  0E72               	movlw	114
  3889   0020EA  EC1E  F015         	call	_UART1_Write
  3890   0020EE  EF70  F010         	goto	l4437
  3891   0020F2                     l4443:
  3892                           
  3893                           ;main.c: 759:             UART1_Write('i');
  3894   0020F2  0E69               	movlw	105
  3895   0020F4  EC1E  F015         	call	_UART1_Write
  3896   0020F8  EF70  F010         	goto	l4437
  3897   0020FC                     l4447:
  3898                           
  3899                           ;main.c: 763:             UART1_Write('n');
  3900   0020FC  0E6E               	movlw	110
  3901   0020FE  EC1E  F015         	call	_UART1_Write
  3902   002102  EF70  F010         	goto	l4437
  3903   002106                     l4451:
  3904                           
  3905                           ;main.c: 767:             UART1_Write('t');
  3906   002106  0E74               	movlw	116
  3907   002108  EC1E  F015         	call	_UART1_Write
  3908   00210C  EF70  F010         	goto	l4437
  3909   002110                     l4455:
  3910                           
  3911                           ;main.c: 771:             UART1_Write(' ');
  3912   002110  0E20               	movlw	32
  3913   002112  EC1E  F015         	call	_UART1_Write
  3914   002116  EF70  F010         	goto	l4437
  3915   00211A                     l4459:
  3916                           
  3917                           ;main.c: 775:             UART1_Write('g');
  3918   00211A  0E67               	movlw	103
  3919   00211C  EC1E  F015         	call	_UART1_Write
  3920   002120  EF70  F010         	goto	l4437
  3921   002124                     l4463:
  3922                           
  3923                           ;main.c: 779:             UART1_Write('a');
  3924   002124  0E61               	movlw	97
  3925   002126  EC1E  F015         	call	_UART1_Write
  3926   00212A  EF70  F010         	goto	l4437
  3927   00212E                     l4467:
  3928                           
  3929                           ;main.c: 783:             UART1_Write('.');
  3930   00212E  0E2E               	movlw	46
  3931   002130  EC1E  F015         	call	_UART1_Write
  3932   002134  EF70  F010         	goto	l4437
  3933   002138                     l4471:
  3934                           
  3935                           ;main.c: 787:             UART1_Write('v');
  3936   002138  0E76               	movlw	118
  3937   00213A  EC1E  F015         	call	_UART1_Write
  3938   00213E  EF70  F010         	goto	l4437
  3939   002142                     l4475:
  3940                           
  3941                           ;main.c: 791:             UART1_Write('a');
  3942   002142  0E61               	movlw	97
  3943   002144  EC1E  F015         	call	_UART1_Write
  3944   002148  EF70  F010         	goto	l4437
  3945   00214C                     l4479:
  3946                           
  3947                           ;main.c: 795:             UART1_Write('l');
  3948   00214C  0E6C               	movlw	108
  3949   00214E  EC1E  F015         	call	_UART1_Write
  3950   002152  EF70  F010         	goto	l4437
  3951   002156                     l4483:
  3952                           
  3953                           ;main.c: 799:             UART1_Write(0xFF);
  3954   002156  0EFF               	movlw	255
  3955   002158  EC1E  F015         	call	_UART1_Write
  3956   00215C  EF70  F010         	goto	l4437
  3957   002160                     l4487:
  3958                           
  3959                           ;main.c: 803:             UART1_Write(0xFF);
  3960   002160  0EFF               	movlw	255
  3961   002162  EC1E  F015         	call	_UART1_Write
  3962   002166  EF70  F010         	goto	l4437
  3963   00216A                     l4491:
  3964                           
  3965                           ;main.c: 807:             UART1_Write(0xFF);
  3966   00216A  0EFF               	movlw	255
  3967   00216C  EC1E  F015         	call	_UART1_Write
  3968   002170                     
  3969                           ;main.c: 812:             ask_gain = 0;
  3970   002170  0E00               	movlw	0
  3971   002172  0100               	movlb	0	; () banked
  3972   002174  6F97               	movwf	(_ask_gain+1)& (0+255),b
  3973   002176  0E00               	movlw	0
  3974   002178  6F96               	movwf	_ask_gain& (0+255),b
  3975   00217A                     
  3976                           ; BSR set to: 0
  3977                           ;main.c: 813:             send_fifo = 1;
  3978   00217A  0E00               	movlw	0
  3979   00217C  6F93               	movwf	(_send_fifo+1)& (0+255),b
  3980   00217E  0E01               	movlw	1
  3981   002180  6F92               	movwf	_send_fifo& (0+255),b
  3982   002182                     
  3983                           ; BSR set to: 0
  3984                           ;main.c: 814:             send_gain = 1;
  3985   002182  0E00               	movlw	0
  3986   002184  6F95               	movwf	(_send_gain+1)& (0+255),b
  3987   002186  0E01               	movlw	1
  3988   002188  6F94               	movwf	_send_gain& (0+255),b
  3989   00218A                     
  3990                           ; BSR set to: 0
  3991                           ;main.c: 815:             state_get_gain = 0;
  3992   00218A  0E00               	movlw	0
  3993   00218C  6E36               	movwf	(_state_get_gain+1)^0,c
  3994   00218E  0E00               	movlw	0
  3995   002190  6E35               	movwf	_state_get_gain^0,c
  3996   002192                     
  3997                           ; BSR set to: 0
  3998   002192  9CBD               	bcf	189,6,c	;volatile
  3999   002194  EF16  F011         	goto	l1135
  4000   002198                     l4505:
  4001   002198  C035  F00B         	movff	_state_get_gain,??_get_gain
  4002   00219C  C036  F00C         	movff	_state_get_gain+1,??_get_gain+1
  4003                           
  4004                           ; Switch on 2 bytes has been partitioned into a top level switch of size 1, and 1 sub-sw
      +                          itches
  4005                           ; Switch size 1, requested type "simple"
  4006                           ; Number of cases is 1, Range of values is 0 to 0
  4007                           ; switch strategies available:
  4008                           ; Name         Instructions Cycles
  4009                           ; simple_byte            4     3 (average)
  4010                           ;	Chosen strategy is simple_byte
  4011   0021A0  500C               	movf	(??_get_gain+1)^0,w,c
  4012   0021A2  0A00               	xorlw	0	; case 0
  4013   0021A4  B4D8               	btfsc	status,2,c
  4014   0021A6  EFD7  F010         	goto	l5041
  4015   0021AA  EF16  F011         	goto	l1135
  4016   0021AE                     l5041:
  4017                           
  4018                           ; Switch size 1, requested type "simple"
  4019                           ; Number of cases is 15, Range of values is 0 to 14
  4020                           ; switch strategies available:
  4021                           ; Name         Instructions Cycles
  4022                           ; simple_byte           46    24 (average)
  4023                           ;	Chosen strategy is simple_byte
  4024   0021AE  500B               	movf	??_get_gain^0,w,c
  4025   0021B0  0A00               	xorlw	0	; case 0
  4026   0021B2  B4D8               	btfsc	status,2,c
  4027   0021B4  EF67  F010         	goto	l1116
  4028   0021B8  0A01               	xorlw	1	; case 1
  4029   0021BA  B4D8               	btfsc	status,2,c
  4030   0021BC  EF74  F010         	goto	l4439
  4031   0021C0  0A03               	xorlw	3	; case 2
  4032   0021C2  B4D8               	btfsc	status,2,c
  4033   0021C4  EF79  F010         	goto	l4443
  4034   0021C8  0A01               	xorlw	1	; case 3
  4035   0021CA  B4D8               	btfsc	status,2,c
  4036   0021CC  EF7E  F010         	goto	l4447
  4037   0021D0  0A07               	xorlw	7	; case 4
  4038   0021D2  B4D8               	btfsc	status,2,c
  4039   0021D4  EF83  F010         	goto	l4451
  4040   0021D8  0A01               	xorlw	1	; case 5
  4041   0021DA  B4D8               	btfsc	status,2,c
  4042   0021DC  EF88  F010         	goto	l4455
  4043   0021E0  0A03               	xorlw	3	; case 6
  4044   0021E2  B4D8               	btfsc	status,2,c
  4045   0021E4  EF8D  F010         	goto	l4459
  4046   0021E8  0A01               	xorlw	1	; case 7
  4047   0021EA  B4D8               	btfsc	status,2,c
  4048   0021EC  EF92  F010         	goto	l4463
  4049   0021F0  0A0F               	xorlw	15	; case 8
  4050   0021F2  B4D8               	btfsc	status,2,c
  4051   0021F4  EF97  F010         	goto	l4467
  4052   0021F8  0A01               	xorlw	1	; case 9
  4053   0021FA  B4D8               	btfsc	status,2,c
  4054   0021FC  EF9C  F010         	goto	l4471
  4055   002200  0A03               	xorlw	3	; case 10
  4056   002202  B4D8               	btfsc	status,2,c
  4057   002204  EFA1  F010         	goto	l4475
  4058   002208  0A01               	xorlw	1	; case 11
  4059   00220A  B4D8               	btfsc	status,2,c
  4060   00220C  EFA6  F010         	goto	l4479
  4061   002210  0A07               	xorlw	7	; case 12
  4062   002212  B4D8               	btfsc	status,2,c
  4063   002214  EFAB  F010         	goto	l4483
  4064   002218  0A01               	xorlw	1	; case 13
  4065   00221A  B4D8               	btfsc	status,2,c
  4066   00221C  EFB0  F010         	goto	l4487
  4067   002220  0A03               	xorlw	3	; case 14
  4068   002222  B4D8               	btfsc	status,2,c
  4069   002224  EFB5  F010         	goto	l4491
  4070   002228  EF16  F011         	goto	l1135
  4071   00222C                     l1135:
  4072   00222C  0012               	return		;funcret
  4073   00222E                     __end_of_get_gain:
  4074                           	callstack 0
  4075                           
  4076 ;; *************** function _UART1_Write *****************
  4077 ;; Defined at:
  4078 ;;		line 201 in file "mcc_generated_files/uart1.c"
  4079 ;; Parameters:    Size  Location     Type
  4080 ;;  txData          1    wreg     unsigned char 
  4081 ;; Auto vars:     Size  Location     Type
  4082 ;;  txData          1    9[COMRAM] unsigned char 
  4083 ;; Return value:  Size  Location     Type
  4084 ;;                  1    wreg      void 
  4085 ;; Registers used:
  4086 ;;		wreg, fsr2l, fsr2h, status,2, status,0
  4087 ;; Tracked objects:
  4088 ;;		On entry : 0/0
  4089 ;;		On exit  : 0/0
  4090 ;;		Unchanged: 0/0
  4091 ;; Data sizes:     COMRAM   BANK0   BANK1   BANK2   BANK3   BANK4   BANK5   BANK6   BANK7   BANK8   BANK9  BANK10  BANK1
      +1  BANK12  BANK13  BANK14  BANK15
  4092 ;;      Params:         0       0       0       0       0       0       0       0       0       0       0       0       
      +0       0       0       0       0
  4093 ;;      Locals:         1       0       0       0       0       0       0       0       0       0       0       0       
      +0       0       0       0       0
  4094 ;;      Temps:          0       0       0       0       0       0       0       0       0       0       0       0       
      +0       0       0       0       0
  4095 ;;      Totals:         1       0       0       0       0       0       0       0       0       0       0       0       
      +0       0       0       0       0
  4096 ;;Total ram usage:        1 bytes
  4097 ;; Hardware stack levels used: 1
  4098 ;; Hardware stack levels required when called: 4
  4099 ;; This function calls:
  4100 ;;		Nothing
  4101 ;; This function is called by:
  4102 ;;		_main
  4103 ;;		_send_uart
  4104 ;;		_send_6F
  4105 ;;		_get_page
  4106 ;;		_get_gain
  4107 ;;		_send_number
  4108 ;; This function uses a non-reentrant model
  4109 ;;
  4110                           
  4111                           	psect	text10
  4112   002A3C                     __ptext10:
  4113                           	callstack 0
  4114   002A3C                     _UART1_Write:
  4115                           	callstack 25
  4116                           
  4117                           ;incstack = 0
  4118                           ;UART1_Write@txData stored from wreg
  4119   002A3C  6E0A               	movwf	UART1_Write@txData^0,c
  4120   002A3E                     l4211:
  4121                           
  4122                           ;mcc_generated_files/uart1.c: 203:     while(0 == uart1TxBufferRemaining)
  4123   002A3E  5049               	movf	_uart1TxBufferRemaining^0,w,c	;volatile
  4124   002A40  B4D8               	btfsc	status,2,c
  4125   002A42  EF25  F015         	goto	u2701
  4126   002A46  EF27  F015         	goto	u2700
  4127   002A4A                     u2701:
  4128   002A4A  EF1F  F015         	goto	l4211
  4129   002A4E                     u2700:
  4130   002A4E                     
  4131                           ;mcc_generated_files/uart1.c: 207:     if(0 == PIE3bits.U1TXIE)
  4132   002A4E  0139               	movlb	57	; () banked
  4133   002A50  B993               	btfsc	147,4,b	;volatile
  4134   002A52  EF2D  F015         	goto	u2711
  4135   002A56  EF2F  F015         	goto	u2710
  4136   002A5A                     u2711:
  4137   002A5A  EF34  F015         	goto	l455
  4138   002A5E                     u2710:
  4139   002A5E                     
  4140                           ; BSR set to: 57
  4141                           ;mcc_generated_files/uart1.c: 208:     {;mcc_generated_files/uart1.c: 209:         U1TXB
      +                           = txData;
  4142   002A5E  0060  F02B  FDEA   	movff	UART1_Write@txData,15850	;volatile
  4143                           
  4144                           ;mcc_generated_files/uart1.c: 210:     }
  4145   002A64  EF4A  F015         	goto	l4225
  4146   002A68                     l455:
  4147                           
  4148                           ; BSR set to: 57
  4149                           ;mcc_generated_files/uart1.c: 212:     {;mcc_generated_files/uart1.c: 213:         PIE3b
      +                          its.U1TXIE = 0;
  4150   002A68  9993               	bcf	147,4,b	;volatile
  4151   002A6A                     
  4152                           ; BSR set to: 57
  4153                           ;mcc_generated_files/uart1.c: 214:         uart1TxBuffer[uart1TxHead++] = txData;
  4154   002A6A  0E78               	movlw	low _uart1TxBuffer
  4155   002A6C  244B               	addwf	_uart1TxHead^0,w,c	;volatile
  4156   002A6E  6ED9               	movwf	fsr2l,c
  4157   002A70  6ADA               	clrf	fsr2h,c
  4158   002A72  0E00               	movlw	high _uart1TxBuffer
  4159   002A74  22DA               	addwfc	fsr2h,f,c
  4160   002A76  0060  F02B  FFDF   	movff	UART1_Write@txData,indf2
  4161   002A7C                     
  4162                           ; BSR set to: 57
  4163   002A7C  2A4B               	incf	_uart1TxHead^0,f,c	;volatile
  4164   002A7E                     
  4165                           ; BSR set to: 57
  4166                           ;mcc_generated_files/uart1.c: 215:         if(sizeof(uart1TxBuffer) <= uart1TxHead)
  4167   002A7E  0E07               	movlw	7
  4168   002A80  644B               	cpfsgt	_uart1TxHead^0,c	;volatile
  4169   002A82  EF45  F015         	goto	u2721
  4170   002A86  EF47  F015         	goto	u2720
  4171   002A8A                     u2721:
  4172   002A8A  EF49  F015         	goto	l4223
  4173   002A8E                     u2720:
  4174   002A8E                     
  4175                           ; BSR set to: 57
  4176                           ;mcc_generated_files/uart1.c: 216:         {;mcc_generated_files/uart1.c: 217:          
      +                             uart1TxHead = 0;
  4177   002A8E  0E00               	movlw	0
  4178   002A90  6E4B               	movwf	_uart1TxHead^0,c	;volatile
  4179   002A92                     l4223:
  4180                           
  4181                           ; BSR set to: 57
  4182                           ;mcc_generated_files/uart1.c: 219:         uart1TxBufferRemaining--;
  4183   002A92  0649               	decf	_uart1TxBufferRemaining^0,f,c	;volatile
  4184   002A94                     l4225:
  4185                           
  4186                           ; BSR set to: 57
  4187                           ;mcc_generated_files/uart1.c: 221:     PIE3bits.U1TXIE = 1;
  4188   002A94  8993               	bsf	147,4,b	;volatile
  4189   002A96                     
  4190                           ; BSR set to: 57
  4191   002A96  0012               	return		;funcret
  4192   002A98                     __end_of_UART1_Write:
  4193                           	callstack 0
  4194                           
  4195 ;; *************** function _categorize_number *****************
  4196 ;; Defined at:
  4197 ;;		line 402 in file "main.c"
  4198 ;; Parameters:    Size  Location     Type
  4199 ;;  num             1    wreg     unsigned char 
  4200 ;;  sec             1    9[COMRAM] unsigned char 
  4201 ;; Auto vars:     Size  Location     Type
  4202 ;;  num             1   33[COMRAM] unsigned char 
  4203 ;;  asciiValues    16   11[COMRAM] unsigned char [16]
  4204 ;;  mask            1   34[COMRAM] unsigned char 
  4205 ;;  real_val        1   28[COMRAM] unsigned char 
  4206 ;;  ascii           1   27[COMRAM] unsigned char 
  4207 ;; Return value:  Size  Location     Type
  4208 ;;                  1    wreg      unsigned char 
  4209 ;; Registers used:
  4210 ;;		wreg, fsr1l, fsr1h, fsr2l, fsr2h, status,2, status,0
  4211 ;; Tracked objects:
  4212 ;;		On entry : 0/0
  4213 ;;		On exit  : 0/0
  4214 ;;		Unchanged: 0/0
  4215 ;; Data sizes:     COMRAM   BANK0   BANK1   BANK2   BANK3   BANK4   BANK5   BANK6   BANK7   BANK8   BANK9  BANK10  BANK1
      +1  BANK12  BANK13  BANK14  BANK15
  4216 ;;      Params:         1       0       0       0       0       0       0       0       0       0       0       0       
      +0       0       0       0       0
  4217 ;;      Locals:        24       0       0       0       0       0       0       0       0       0       0       0       
      +0       0       0       0       0
  4218 ;;      Temps:          1       0       0       0       0       0       0       0       0       0       0       0       
      +0       0       0       0       0
  4219 ;;      Totals:        26       0       0       0       0       0       0       0       0       0       0       0       
      +0       0       0       0       0
  4220 ;;Total ram usage:       26 bytes
  4221 ;; Hardware stack levels used: 1
  4222 ;; Hardware stack levels required when called: 4
  4223 ;; This function calls:
  4224 ;;		Nothing
  4225 ;; This function is called by:
  4226 ;;		_main
  4227 ;;		_send_number
  4228 ;; This function uses a non-reentrant model
  4229 ;;
  4230                           
  4231                           	psect	text11
  4232   002864                     __ptext11:
  4233                           	callstack 0
  4234   002864                     _categorize_number:
  4235                           	callstack 26
  4236                           
  4237                           ; BSR set to: 57
  4238                           ;incstack = 0
  4239                           ;categorize_number@num stored from wreg
  4240   002864  6E22               	movwf	categorize_number@num^0,c
  4241   002866                     
  4242                           ;main.c: 402: char categorize_number(uint8_t num, char sec);main.c: 403: {;main.c: 404: 
      +                              char asciiValues[] = {'0','1','2','3','4','5','6','7','8','9','A','B','C','D','E','F
      +                          '};
  4243   002866  EE20  F19B         	lfsr	2,categorize_number@F16940
  4244   00286A  EE10  F00C         	lfsr	1,categorize_number@asciiValues
  4245   00286E  0E0F               	movlw	15
  4246   002870                     u2971:
  4247   002870  006F FF6F FFE3     	movff	plusw2,plusw1
  4248   002876  06E8               	decf	wreg,f,c
  4249   002878  E2FB               	bc	u2971
  4250   00287A                     
  4251                           ;main.c: 405:     char mask = (sec == 0) ? 0x0f : 0xf0;
  4252   00287A  500A               	movf	categorize_number@sec^0,w,c
  4253   00287C  B4D8               	btfsc	status,2,c
  4254   00287E  EF43  F014         	goto	u2981
  4255   002882  EF45  F014         	goto	u2980
  4256   002886                     u2981:
  4257   002886  EF4B  F014         	goto	l4547
  4258   00288A                     u2980:
  4259   00288A  0E00               	movlw	0
  4260   00288C  6E1F               	movwf	(_categorize_number$2024+1)^0,c
  4261   00288E  0EF0               	movlw	240
  4262   002890  6E1E               	movwf	_categorize_number$2024^0,c
  4263   002892  EF4F  F014         	goto	l4549
  4264   002896                     l4547:
  4265   002896  0E00               	movlw	0
  4266   002898  6E1F               	movwf	(_categorize_number$2024+1)^0,c
  4267   00289A  0E0F               	movlw	15
  4268   00289C  6E1E               	movwf	_categorize_number$2024^0,c
  4269   00289E                     l4549:
  4270   00289E  C01E  F023         	movff	_categorize_number$2024,categorize_number@mask
  4271                           
  4272                           ;main.c: 406:     char ascii;;main.c: 407:     char real_val = (sec == 0) ? num & mask :
      +                           (num & mask)>>4;
  4273   0028A2  500A               	movf	categorize_number@sec^0,w,c
  4274   0028A4  B4D8               	btfsc	status,2,c
  4275   0028A6  EF57  F014         	goto	u2991
  4276   0028AA  EF59  F014         	goto	u2990
  4277   0028AE                     u2991:
  4278   0028AE  EF64  F014         	goto	l4553
  4279   0028B2                     u2990:
  4280   0028B2  5022               	movf	categorize_number@num^0,w,c
  4281   0028B4  1423               	andwf	categorize_number@mask^0,w,c
  4282   0028B6  6E0B               	movwf	??_categorize_number^0,c
  4283   0028B8  3A0B               	swapf	??_categorize_number^0,f,c
  4284   0028BA  0E0F               	movlw	15
  4285   0028BC  160B               	andwf	??_categorize_number^0,f,c
  4286   0028BE  500B               	movf	??_categorize_number^0,w,c
  4287   0028C0  6E20               	movwf	_categorize_number$2027^0,c
  4288   0028C2  6A21               	clrf	(_categorize_number$2027+1)^0,c
  4289   0028C4  EF6A  F014         	goto	l4555
  4290   0028C8                     l4553:
  4291   0028C8  5022               	movf	categorize_number@num^0,w,c
  4292   0028CA  1423               	andwf	categorize_number@mask^0,w,c
  4293   0028CC  6E0B               	movwf	??_categorize_number^0,c
  4294   0028CE  500B               	movf	??_categorize_number^0,w,c
  4295   0028D0  6E20               	movwf	_categorize_number$2027^0,c
  4296   0028D2  6A21               	clrf	(_categorize_number$2027+1)^0,c
  4297   0028D4                     l4555:
  4298   0028D4  C020  F01D         	movff	_categorize_number$2027,categorize_number@real_val
  4299   0028D8                     
  4300                           ;main.c: 431:     ascii = asciiValues[real_val];
  4301   0028D8  0E0C               	movlw	low categorize_number@asciiValues
  4302   0028DA  241D               	addwf	categorize_number@real_val^0,w,c
  4303   0028DC  6ED9               	movwf	fsr2l,c
  4304   0028DE  6ADA               	clrf	fsr2h,c
  4305   0028E0  0E00               	movlw	high categorize_number@asciiValues
  4306   0028E2  22DA               	addwfc	fsr2h,f,c
  4307   0028E4  50DF               	movf	indf2,w,c
  4308   0028E6  6E1C               	movwf	categorize_number@ascii^0,c
  4309   0028E8                     
  4310                           ;main.c: 432:     return ascii;
  4311   0028E8  501C               	movf	categorize_number@ascii^0,w,c
  4312   0028EA  0012               	return		;funcret
  4313   0028EC                     __end_of_categorize_number:
  4314                           	callstack 0
  4315                           
  4316 ;; *************** function _abs_16 *****************
  4317 ;; Defined at:
  4318 ;;		line 455 in file "main.c"
  4319 ;; Parameters:    Size  Location     Type
  4320 ;;  num             2    9[COMRAM] short 
  4321 ;; Auto vars:     Size  Location     Type
  4322 ;;  resp            2   13[COMRAM] unsigned short 
  4323 ;; Return value:  Size  Location     Type
  4324 ;;                  2    9[COMRAM] unsigned short 
  4325 ;; Registers used:
  4326 ;;		wreg, status,2, status,0
  4327 ;; Tracked objects:
  4328 ;;		On entry : 0/0
  4329 ;;		On exit  : 0/0
  4330 ;;		Unchanged: 0/0
  4331 ;; Data sizes:     COMRAM   BANK0   BANK1   BANK2   BANK3   BANK4   BANK5   BANK6   BANK7   BANK8   BANK9  BANK10  BANK1
      +1  BANK12  BANK13  BANK14  BANK15
  4332 ;;      Params:         2       0       0       0       0       0       0       0       0       0       0       0       
      +0       0       0       0       0
  4333 ;;      Locals:         2       0       0       0       0       0       0       0       0       0       0       0       
      +0       0       0       0       0
  4334 ;;      Temps:          2       0       0       0       0       0       0       0       0       0       0       0       
      +0       0       0       0       0
  4335 ;;      Totals:         6       0       0       0       0       0       0       0       0       0       0       0       
      +0       0       0       0       0
  4336 ;;Total ram usage:        6 bytes
  4337 ;; Hardware stack levels used: 1
  4338 ;; Hardware stack levels required when called: 4
  4339 ;; This function calls:
  4340 ;;		Nothing
  4341 ;; This function is called by:
  4342 ;;		_main
  4343 ;; This function uses a non-reentrant model
  4344 ;;
  4345                           
  4346                           	psect	text12
  4347   002BE8                     __ptext12:
  4348                           	callstack 0
  4349   002BE8                     _abs_16:
  4350                           	callstack 26
  4351   002BE8                     
  4352                           ;main.c: 458:     if(num > 0)
  4353   002BE8  BE0B               	btfsc	(abs_16@num+1)^0,7,c
  4354   002BEA  EFFF  F015         	goto	u2891
  4355   002BEE  500B               	movf	(abs_16@num+1)^0,w,c
  4356   002BF0  E108               	bnz	u2890
  4357   002BF2  040A               	decf	abs_16@num^0,w,c
  4358   002BF4  A0D8               	btfss	status,0,c
  4359   002BF6  EFFF  F015         	goto	u2891
  4360   002BFA  EF01  F016         	goto	u2890
  4361   002BFE                     u2891:
  4362   002BFE  EF07  F016         	goto	l1035
  4363   002C02                     u2890:
  4364   002C02                     
  4365                           ;main.c: 459:     {;main.c: 460:         resp = (uint16_t)(num);
  4366   002C02  C00A  F00E         	movff	abs_16@num,abs_16@resp
  4367   002C06  C00B  F00F         	movff	abs_16@num+1,abs_16@resp+1
  4368                           
  4369                           ;main.c: 461:     }
  4370   002C0A  EF13  F016         	goto	l1036
  4371   002C0E                     l1035:
  4372                           
  4373                           ;main.c: 463:     {;main.c: 464:         resp = (uint16_t)(-num);
  4374   002C0E  C00A  F00C         	movff	abs_16@num,??_abs_16
  4375   002C12  C00B  F00D         	movff	abs_16@num+1,??_abs_16+1
  4376   002C16  1E0C               	comf	??_abs_16^0,f,c
  4377   002C18  1E0D               	comf	(??_abs_16+1)^0,f,c
  4378   002C1A  4A0C               	infsnz	??_abs_16^0,f,c
  4379   002C1C  2A0D               	incf	(??_abs_16+1)^0,f,c
  4380   002C1E  C00C  F00E         	movff	??_abs_16,abs_16@resp
  4381   002C22  C00D  F00F         	movff	??_abs_16+1,abs_16@resp+1
  4382   002C26                     l1036:
  4383                           
  4384                           ;main.c: 466:     return resp;
  4385   002C26  C00E  F00A         	movff	abs_16@resp,?_abs_16
  4386   002C2A  C00F  F00B         	movff	abs_16@resp+1,?_abs_16+1
  4387   002C2E  0012               	return		;funcret
  4388   002C30                     __end_of_abs_16:
  4389                           	callstack 0
  4390                           
  4391 ;; *************** function _UART1_Read *****************
  4392 ;; Defined at:
  4393 ;;		line 179 in file "mcc_generated_files/uart1.c"
  4394 ;; Parameters:    Size  Location     Type
  4395 ;;		None
  4396 ;; Auto vars:     Size  Location     Type
  4397 ;;  readValue       1    9[COMRAM] unsigned char 
  4398 ;; Return value:  Size  Location     Type
  4399 ;;                  1    wreg      unsigned char 
  4400 ;; Registers used:
  4401 ;;		wreg, fsr2l, fsr2h, status,2, status,0
  4402 ;; Tracked objects:
  4403 ;;		On entry : 0/0
  4404 ;;		On exit  : 0/0
  4405 ;;		Unchanged: 0/0
  4406 ;; Data sizes:     COMRAM   BANK0   BANK1   BANK2   BANK3   BANK4   BANK5   BANK6   BANK7   BANK8   BANK9  BANK10  BANK1
      +1  BANK12  BANK13  BANK14  BANK15
  4407 ;;      Params:         0       0       0       0       0       0       0       0       0       0       0       0       
      +0       0       0       0       0
  4408 ;;      Locals:         1       0       0       0       0       0       0       0       0       0       0       0       
      +0       0       0       0       0
  4409 ;;      Temps:          0       0       0       0       0       0       0       0       0       0       0       0       
      +0       0       0       0       0
  4410 ;;      Totals:         1       0       0       0       0       0       0       0       0       0       0       0       
      +0       0       0       0       0
  4411 ;;Total ram usage:        1 bytes
  4412 ;; Hardware stack levels used: 1
  4413 ;; Hardware stack levels required when called: 4
  4414 ;; This function calls:
  4415 ;;		Nothing
  4416 ;; This function is called by:
  4417 ;;		_main
  4418 ;; This function uses a non-reentrant model
  4419 ;;
  4420                           
  4421                           	psect	text13
  4422   002B46                     __ptext13:
  4423                           	callstack 0
  4424   002B46                     _UART1_Read:
  4425                           	callstack 26
  4426   002B46                     l4283:
  4427                           
  4428                           ;mcc_generated_files/uart1.c: 183:     while(0 == uart1RxCount)
  4429   002B46  5046               	movf	_uart1RxCount^0,w,c	;volatile
  4430   002B48  B4D8               	btfsc	status,2,c
  4431   002B4A  EFA9  F015         	goto	u2781
  4432   002B4E  EFAB  F015         	goto	u2780
  4433   002B52                     u2781:
  4434   002B52  EFA3  F015         	goto	l4283
  4435   002B56                     u2780:
  4436   002B56                     
  4437                           ;mcc_generated_files/uart1.c: 187:     uart1RxLastError = uart1RxStatusBuffer[uart1RxTai
      +                          l];
  4438   002B56  0E68               	movlw	low _uart1RxStatusBuffer
  4439   002B58  2447               	addwf	_uart1RxTail^0,w,c	;volatile
  4440   002B5A  6ED9               	movwf	fsr2l,c
  4441   002B5C  6ADA               	clrf	fsr2h,c
  4442   002B5E  0E00               	movlw	high _uart1RxStatusBuffer
  4443   002B60  22DA               	addwfc	fsr2h,f,c
  4444   002B62  50DF               	movf	indf2,w,c
  4445   002B64  6E45               	movwf	_uart1RxLastError^0,c	;volatile
  4446                           
  4447                           ;mcc_generated_files/uart1.c: 189:     readValue = uart1RxBuffer[uart1RxTail++];
  4448   002B66  0E70               	movlw	low _uart1RxBuffer
  4449   002B68  2447               	addwf	_uart1RxTail^0,w,c	;volatile
  4450   002B6A  6ED9               	movwf	fsr2l,c
  4451   002B6C  6ADA               	clrf	fsr2h,c
  4452   002B6E  0E00               	movlw	high _uart1RxBuffer
  4453   002B70  22DA               	addwfc	fsr2h,f,c
  4454   002B72  50DF               	movf	indf2,w,c
  4455   002B74  6E0A               	movwf	UART1_Read@readValue^0,c
  4456   002B76  2A47               	incf	_uart1RxTail^0,f,c	;volatile
  4457   002B78                     
  4458                           ;mcc_generated_files/uart1.c: 190:     if(sizeof(uart1RxBuffer) <= uart1RxTail)
  4459   002B78  0E07               	movlw	7
  4460   002B7A  6447               	cpfsgt	_uart1RxTail^0,c	;volatile
  4461   002B7C  EFC2  F015         	goto	u2791
  4462   002B80  EFC4  F015         	goto	u2790
  4463   002B84                     u2791:
  4464   002B84  EFC6  F015         	goto	l4293
  4465   002B88                     u2790:
  4466   002B88                     
  4467                           ;mcc_generated_files/uart1.c: 191:     {;mcc_generated_files/uart1.c: 192:         uart1
      +                          RxTail = 0;
  4468   002B88  0E00               	movlw	0
  4469   002B8A  6E47               	movwf	_uart1RxTail^0,c	;volatile
  4470   002B8C                     l4293:
  4471                           
  4472                           ;mcc_generated_files/uart1.c: 194:     PIE3bits.U1RXIE = 0;
  4473   002B8C  0139               	movlb	57	; () banked
  4474   002B8E  9793               	bcf	147,3,b	;volatile
  4475   002B90                     
  4476                           ; BSR set to: 57
  4477                           ;mcc_generated_files/uart1.c: 195:     uart1RxCount--;
  4478   002B90  0646               	decf	_uart1RxCount^0,f,c	;volatile
  4479   002B92                     
  4480                           ; BSR set to: 57
  4481                           ;mcc_generated_files/uart1.c: 196:     PIE3bits.U1RXIE = 1;
  4482   002B92  8793               	bsf	147,3,b	;volatile
  4483   002B94                     
  4484                           ; BSR set to: 57
  4485                           ;mcc_generated_files/uart1.c: 198:     return readValue;
  4486   002B94  500A               	movf	UART1_Read@readValue^0,w,c
  4487   002B96                     
  4488                           ; BSR set to: 57
  4489   002B96  0012               	return		;funcret
  4490   002B98                     __end_of_UART1_Read:
  4491                           	callstack 0
  4492                           
  4493 ;; *************** function _SYSTEM_Initialize *****************
  4494 ;; Defined at:
  4495 ;;		line 50 in file "mcc_generated_files/mcc.c"
  4496 ;; Parameters:    Size  Location     Type
  4497 ;;		None
  4498 ;; Auto vars:     Size  Location     Type
  4499 ;;		None
  4500 ;; Return value:  Size  Location     Type
  4501 ;;                  1    wreg      void 
  4502 ;; Registers used:
  4503 ;;		wreg, status,2, status,0, cstack
  4504 ;; Tracked objects:
  4505 ;;		On entry : 0/0
  4506 ;;		On exit  : 0/0
  4507 ;;		Unchanged: 0/0
  4508 ;; Data sizes:     COMRAM   BANK0   BANK1   BANK2   BANK3   BANK4   BANK5   BANK6   BANK7   BANK8   BANK9  BANK10  BANK1
      +1  BANK12  BANK13  BANK14  BANK15
  4509 ;;      Params:         0       0       0       0       0       0       0       0       0       0       0       0       
      +0       0       0       0       0
  4510 ;;      Locals:         0       0       0       0       0       0       0       0       0       0       0       0       
      +0       0       0       0       0
  4511 ;;      Temps:          0       0       0       0       0       0       0       0       0       0       0       0       
      +0       0       0       0       0
  4512 ;;      Totals:         0       0       0       0       0       0       0       0       0       0       0       0       
      +0       0       0       0       0
  4513 ;;Total ram usage:        0 bytes
  4514 ;; Hardware stack levels used: 1
  4515 ;; Hardware stack levels required when called: 6
  4516 ;; This function calls:
  4517 ;;		_ADCC_Initialize
  4518 ;;		_FVR_Initialize
  4519 ;;		_INTERRUPT_Initialize
  4520 ;;		_OSCILLATOR_Initialize
  4521 ;;		_PIN_MANAGER_Initialize
  4522 ;;		_PMD_Initialize
  4523 ;;		_SPI1_Initialize
  4524 ;;		_TMR2_Initialize
  4525 ;;		_TMR4_Initialize
  4526 ;;		_UART1_Initialize
  4527 ;; This function is called by:
  4528 ;;		_main
  4529 ;; This function uses a non-reentrant model
  4530 ;;
  4531                           
  4532                           	psect	text14
  4533   002D6A                     __ptext14:
  4534                           	callstack 0
  4535   002D6A                     _SYSTEM_Initialize:
  4536                           	callstack 24
  4537   002D6A                     
  4538                           ;mcc_generated_files/mcc.c: 52:     INTERRUPT_Initialize();
  4539   002D6A  EC4D  F017         	call	_INTERRUPT_Initialize	;wreg free
  4540   002D6E                     
  4541                           ;mcc_generated_files/mcc.c: 53:     PMD_Initialize();
  4542   002D6E  ECCA  F016         	call	_PMD_Initialize	;wreg free
  4543   002D72                     
  4544                           ;mcc_generated_files/mcc.c: 54:     PIN_MANAGER_Initialize();
  4545   002D72  EC3C  F013         	call	_PIN_MANAGER_Initialize	;wreg free
  4546   002D76                     
  4547                           ;mcc_generated_files/mcc.c: 55:     OSCILLATOR_Initialize();
  4548   002D76  ECFB  F016         	call	_OSCILLATOR_Initialize	;wreg free
  4549   002D7A                     
  4550                           ;mcc_generated_files/mcc.c: 56:     FVR_Initialize();
  4551   002D7A  EC44  F017         	call	_FVR_Initialize	;wreg free
  4552   002D7E                     
  4553                           ;mcc_generated_files/mcc.c: 57:     ADCC_Initialize();
  4554   002D7E  EC4C  F015         	call	_ADCC_Initialize	;wreg free
  4555   002D82                     
  4556                           ;mcc_generated_files/mcc.c: 58:     TMR4_Initialize();
  4557   002D82  EC73  F016         	call	_TMR4_Initialize	;wreg free
  4558   002D86                     
  4559                           ;mcc_generated_files/mcc.c: 59:     TMR2_Initialize();
  4560   002D86  EC89  F016         	call	_TMR2_Initialize	;wreg free
  4561   002D8A                     
  4562                           ;mcc_generated_files/mcc.c: 60:     UART1_Initialize();
  4563   002D8A  EC8F  F013         	call	_UART1_Initialize	;wreg free
  4564   002D8E                     
  4565                           ;mcc_generated_files/mcc.c: 61:     SPI1_Initialize();
  4566   002D8E  ECEE  F016         	call	_SPI1_Initialize	;wreg free
  4567   002D92  0012               	return		;funcret
  4568   002D94                     __end_of_SYSTEM_Initialize:
  4569                           	callstack 0
  4570                           
  4571 ;; *************** function _UART1_Initialize *****************
  4572 ;; Defined at:
  4573 ;;		line 86 in file "mcc_generated_files/uart1.c"
  4574 ;; Parameters:    Size  Location     Type
  4575 ;;		None
  4576 ;; Auto vars:     Size  Location     Type
  4577 ;;		None
  4578 ;; Return value:  Size  Location     Type
  4579 ;;                  1    wreg      void 
  4580 ;; Registers used:
  4581 ;;		wreg, status,2, status,0, cstack
  4582 ;; Tracked objects:
  4583 ;;		On entry : 0/0
  4584 ;;		On exit  : 0/0
  4585 ;;		Unchanged: 0/0
  4586 ;; Data sizes:     COMRAM   BANK0   BANK1   BANK2   BANK3   BANK4   BANK5   BANK6   BANK7   BANK8   BANK9  BANK10  BANK1
      +1  BANK12  BANK13  BANK14  BANK15
  4587 ;;      Params:         0       0       0       0       0       0       0       0       0       0       0       0       
      +0       0       0       0       0
  4588 ;;      Locals:         0       0       0       0       0       0       0       0       0       0       0       0       
      +0       0       0       0       0
  4589 ;;      Temps:          0       0       0       0       0       0       0       0       0       0       0       0       
      +0       0       0       0       0
  4590 ;;      Totals:         0       0       0       0       0       0       0       0       0       0       0       0       
      +0       0       0       0       0
  4591 ;;Total ram usage:        0 bytes
  4592 ;; Hardware stack levels used: 1
  4593 ;; Hardware stack levels required when called: 5
  4594 ;; This function calls:
  4595 ;;		_UART1_SetErrorHandler
  4596 ;;		_UART1_SetFramingErrorHandler
  4597 ;;		_UART1_SetOverrunErrorHandler
  4598 ;;		_UART1_SetRxInterruptHandler
  4599 ;;		_UART1_SetTxInterruptHandler
  4600 ;; This function is called by:
  4601 ;;		_SYSTEM_Initialize
  4602 ;; This function uses a non-reentrant model
  4603 ;;
  4604                           
  4605                           	psect	text15
  4606   00271E                     __ptext15:
  4607                           	callstack 0
  4608   00271E                     _UART1_Initialize:
  4609                           	callstack 24
  4610   00271E                     
  4611                           ;mcc_generated_files/uart1.c: 89:     PIE3bits.U1RXIE = 0;
  4612   00271E  0139               	movlb	57	; () banked
  4613   002720  9793               	bcf	147,3,b	;volatile
  4614   002722                     
  4615                           ; BSR set to: 57
  4616                           ;mcc_generated_files/uart1.c: 90:     UART1_SetRxInterruptHandler(UART1_Receive_ISR);
  4617   002722  0EB8               	movlw	low _UART1_Receive_ISR
  4618   002724  6E0A               	movwf	UART1_SetRxInterruptHandler@InterruptHandler^0,c
  4619   002726  0E25               	movlw	high _UART1_Receive_ISR
  4620   002728  6E0B               	movwf	(UART1_SetRxInterruptHandler@InterruptHandler+1)^0,c
  4621   00272A  EC26  F017         	call	_UART1_SetRxInterruptHandler	;wreg free
  4622   00272E                     
  4623                           ;mcc_generated_files/uart1.c: 91:     PIE3bits.U1TXIE = 0;
  4624   00272E  0139               	movlb	57	; () banked
  4625   002730  9993               	bcf	147,4,b	;volatile
  4626                           
  4627                           ;mcc_generated_files/uart1.c: 92:     UART1_SetTxInterruptHandler(UART1_Transmit_ISR);
  4628   002732  0E30               	movlw	low _UART1_Transmit_ISR
  4629   002734  6E0A               	movwf	UART1_SetTxInterruptHandler@InterruptHandler^0,c
  4630   002736  0E2C               	movlw	high _UART1_Transmit_ISR
  4631   002738  6E0B               	movwf	(UART1_SetTxInterruptHandler@InterruptHandler+1)^0,c
  4632   00273A  EC21  F017         	call	_UART1_SetTxInterruptHandler	;wreg free
  4633   00273E                     
  4634                           ;mcc_generated_files/uart1.c: 97:     U1P1L = 0x00;
  4635   00273E  0E00               	movlw	0
  4636   002740  013D               	movlb	61	; () banked
  4637   002742  6FEC               	movwf	236,b	;volatile
  4638   002744                     
  4639                           ; BSR set to: 61
  4640                           ;mcc_generated_files/uart1.c: 100:     U1P1H = 0x00;
  4641   002744  0E00               	movlw	0
  4642   002746  6FED               	movwf	237,b	;volatile
  4643   002748                     
  4644                           ; BSR set to: 61
  4645                           ;mcc_generated_files/uart1.c: 103:     U1P2L = 0x00;
  4646   002748  0E00               	movlw	0
  4647   00274A  6FEE               	movwf	238,b	;volatile
  4648   00274C                     
  4649                           ; BSR set to: 61
  4650                           ;mcc_generated_files/uart1.c: 106:     U1P2H = 0x00;
  4651   00274C  0E00               	movlw	0
  4652   00274E  6FEF               	movwf	239,b	;volatile
  4653   002750                     
  4654                           ; BSR set to: 61
  4655                           ;mcc_generated_files/uart1.c: 109:     U1P3L = 0x00;
  4656   002750  0E00               	movlw	0
  4657   002752  6FF0               	movwf	240,b	;volatile
  4658   002754                     
  4659                           ; BSR set to: 61
  4660                           ;mcc_generated_files/uart1.c: 112:     U1P3H = 0x00;
  4661   002754  0E00               	movlw	0
  4662   002756  6FF1               	movwf	241,b	;volatile
  4663   002758                     
  4664                           ; BSR set to: 61
  4665                           ;mcc_generated_files/uart1.c: 115:     U1CON0 = 0xB0;
  4666   002758  0EB0               	movlw	176
  4667   00275A  6FF2               	movwf	242,b	;volatile
  4668   00275C                     
  4669                           ; BSR set to: 61
  4670                           ;mcc_generated_files/uart1.c: 118:     U1CON1 = 0x80;
  4671   00275C  0E80               	movlw	128
  4672   00275E  6FF3               	movwf	243,b	;volatile
  4673   002760                     
  4674                           ; BSR set to: 61
  4675                           ;mcc_generated_files/uart1.c: 121:     U1CON2 = 0x00;
  4676   002760  0E00               	movlw	0
  4677   002762  6FF4               	movwf	244,b	;volatile
  4678   002764                     
  4679                           ; BSR set to: 61
  4680                           ;mcc_generated_files/uart1.c: 124:     U1BRGL = 0x82;
  4681   002764  0E82               	movlw	130
  4682   002766  6FF5               	movwf	245,b	;volatile
  4683   002768                     
  4684                           ; BSR set to: 61
  4685                           ;mcc_generated_files/uart1.c: 127:     U1BRGH = 0x06;
  4686   002768  0E06               	movlw	6
  4687   00276A  6FF6               	movwf	246,b	;volatile
  4688   00276C                     
  4689                           ; BSR set to: 61
  4690                           ;mcc_generated_files/uart1.c: 130:     U1FIFO = 0x00;
  4691   00276C  0E00               	movlw	0
  4692   00276E  6FF7               	movwf	247,b	;volatile
  4693   002770                     
  4694                           ; BSR set to: 61
  4695                           ;mcc_generated_files/uart1.c: 133:     U1UIR = 0x00;
  4696   002770  0E00               	movlw	0
  4697   002772  6FF8               	movwf	248,b	;volatile
  4698   002774                     
  4699                           ; BSR set to: 61
  4700                           ;mcc_generated_files/uart1.c: 136:     U1ERRIR = 0x00;
  4701   002774  0E00               	movlw	0
  4702   002776  6FF9               	movwf	249,b	;volatile
  4703   002778                     
  4704                           ; BSR set to: 61
  4705                           ;mcc_generated_files/uart1.c: 139:     U1ERRIE = 0x00;
  4706   002778  0E00               	movlw	0
  4707   00277A  6FFA               	movwf	250,b	;volatile
  4708   00277C                     
  4709                           ; BSR set to: 61
  4710                           ;mcc_generated_files/uart1.c: 142:     UART1_SetFramingErrorHandler(UART1_DefaultFraming
      +                          ErrorHandler);
  4711   00277C  0EA2               	movlw	low _UART1_DefaultFramingErrorHandler
  4712   00277E  6E0A               	movwf	UART1_SetFramingErrorHandler@interruptHandler^0,c
  4713   002780  0E2E               	movlw	high _UART1_DefaultFramingErrorHandler
  4714   002782  6E0B               	movwf	(UART1_SetFramingErrorHandler@interruptHandler+1)^0,c
  4715   002784  EC30  F017         	call	_UART1_SetFramingErrorHandler	;wreg free
  4716   002788                     
  4717                           ;mcc_generated_files/uart1.c: 143:     UART1_SetOverrunErrorHandler(UART1_DefaultOverrun
      +                          ErrorHandler);
  4718   002788  0EA0               	movlw	low _UART1_DefaultOverrunErrorHandler
  4719   00278A  6E0A               	movwf	UART1_SetOverrunErrorHandler@interruptHandler^0,c
  4720   00278C  0E2E               	movlw	high _UART1_DefaultOverrunErrorHandler
  4721   00278E  6E0B               	movwf	(UART1_SetOverrunErrorHandler@interruptHandler+1)^0,c
  4722   002790  EC2B  F017         	call	_UART1_SetOverrunErrorHandler	;wreg free
  4723   002794                     
  4724                           ;mcc_generated_files/uart1.c: 144:     UART1_SetErrorHandler(UART1_DefaultErrorHandler);
  4725   002794  0E90               	movlw	low _UART1_DefaultErrorHandler
  4726   002796  6E0A               	movwf	UART1_SetErrorHandler@interruptHandler^0,c
  4727   002798  0E2E               	movlw	high _UART1_DefaultErrorHandler
  4728   00279A  6E0B               	movwf	(UART1_SetErrorHandler@interruptHandler+1)^0,c
  4729   00279C  EC35  F017         	call	_UART1_SetErrorHandler	;wreg free
  4730                           
  4731                           ;mcc_generated_files/uart1.c: 146:     uart1RxLastError.status = 0;
  4732   0027A0  0E00               	movlw	0
  4733   0027A2  6E45               	movwf	_uart1RxLastError^0,c	;volatile
  4734                           
  4735                           ;mcc_generated_files/uart1.c: 149:     uart1TxHead = 0;
  4736   0027A4  0E00               	movlw	0
  4737   0027A6  6E4B               	movwf	_uart1TxHead^0,c	;volatile
  4738                           
  4739                           ;mcc_generated_files/uart1.c: 150:     uart1TxTail = 0;
  4740   0027A8  0E00               	movlw	0
  4741   0027AA  6E4A               	movwf	_uart1TxTail^0,c	;volatile
  4742                           
  4743                           ;mcc_generated_files/uart1.c: 151:     uart1TxBufferRemaining = sizeof(uart1TxBuffer);
  4744   0027AC  0E08               	movlw	8
  4745   0027AE  6E49               	movwf	_uart1TxBufferRemaining^0,c	;volatile
  4746                           
  4747                           ;mcc_generated_files/uart1.c: 152:     uart1RxHead = 0;
  4748   0027B0  0E00               	movlw	0
  4749   0027B2  6E48               	movwf	_uart1RxHead^0,c	;volatile
  4750                           
  4751                           ;mcc_generated_files/uart1.c: 153:     uart1RxTail = 0;
  4752   0027B4  0E00               	movlw	0
  4753   0027B6  6E47               	movwf	_uart1RxTail^0,c	;volatile
  4754                           
  4755                           ;mcc_generated_files/uart1.c: 154:     uart1RxCount = 0;
  4756   0027B8  0E00               	movlw	0
  4757   0027BA  6E46               	movwf	_uart1RxCount^0,c	;volatile
  4758   0027BC                     
  4759                           ;mcc_generated_files/uart1.c: 157:     PIE3bits.U1RXIE = 1;
  4760   0027BC  0139               	movlb	57	; () banked
  4761   0027BE  8793               	bsf	147,3,b	;volatile
  4762   0027C0                     
  4763                           ; BSR set to: 57
  4764   0027C0  0012               	return		;funcret
  4765   0027C2                     __end_of_UART1_Initialize:
  4766                           	callstack 0
  4767                           
  4768 ;; *************** function _UART1_SetTxInterruptHandler *****************
  4769 ;; Defined at:
  4770 ;;		line 308 in file "mcc_generated_files/uart1.c"
  4771 ;; Parameters:    Size  Location     Type
  4772 ;;  InterruptHan    2    9[COMRAM] PTR FTN()void 
  4773 ;;		 -> UART1_Transmit_ISR(1), 
  4774 ;; Auto vars:     Size  Location     Type
  4775 ;;		None
  4776 ;; Return value:  Size  Location     Type
  4777 ;;                  1    wreg      void 
  4778 ;; Registers used:
  4779 ;;		wreg, status,2, status,0
  4780 ;; Tracked objects:
  4781 ;;		On entry : 0/0
  4782 ;;		On exit  : 0/0
  4783 ;;		Unchanged: 0/0
  4784 ;; Data sizes:     COMRAM   BANK0   BANK1   BANK2   BANK3   BANK4   BANK5   BANK6   BANK7   BANK8   BANK9  BANK10  BANK1
      +1  BANK12  BANK13  BANK14  BANK15
  4785 ;;      Params:         2       0       0       0       0       0       0       0       0       0       0       0       
      +0       0       0       0       0
  4786 ;;      Locals:         0       0       0       0       0       0       0       0       0       0       0       0       
      +0       0       0       0       0
  4787 ;;      Temps:          0       0       0       0       0       0       0       0       0       0       0       0       
      +0       0       0       0       0
  4788 ;;      Totals:         2       0       0       0       0       0       0       0       0       0       0       0       
      +0       0       0       0       0
  4789 ;;Total ram usage:        2 bytes
  4790 ;; Hardware stack levels used: 1
  4791 ;; Hardware stack levels required when called: 4
  4792 ;; This function calls:
  4793 ;;		Nothing
  4794 ;; This function is called by:
  4795 ;;		_UART1_Initialize
  4796 ;; This function uses a non-reentrant model
  4797 ;;
  4798                           
  4799                           	psect	text16
  4800   002E42                     __ptext16:
  4801                           	callstack 0
  4802   002E42                     _UART1_SetTxInterruptHandler:
  4803                           	callstack 24
  4804   002E42                     
  4805                           ;mcc_generated_files/uart1.c: 309:     UART1_TxInterruptHandler = InterruptHandler;
  4806   002E42  C00A  F04E         	movff	UART1_SetTxInterruptHandler@InterruptHandler,_UART1_TxInterruptHandler
  4807   002E46  C00B  F04F         	movff	UART1_SetTxInterruptHandler@InterruptHandler+1,_UART1_TxInterruptHandler+1
  4808   002E4A  0012               	return		;funcret
  4809   002E4C                     __end_of_UART1_SetTxInterruptHandler:
  4810                           	callstack 0
  4811                           
  4812 ;; *************** function _UART1_SetRxInterruptHandler *****************
  4813 ;; Defined at:
  4814 ;;		line 304 in file "mcc_generated_files/uart1.c"
  4815 ;; Parameters:    Size  Location     Type
  4816 ;;  InterruptHan    2    9[COMRAM] PTR FTN()void 
  4817 ;;		 -> UART1_Receive_ISR(1), 
  4818 ;; Auto vars:     Size  Location     Type
  4819 ;;		None
  4820 ;; Return value:  Size  Location     Type
  4821 ;;                  1    wreg      void 
  4822 ;; Registers used:
  4823 ;;		wreg, status,2, status,0
  4824 ;; Tracked objects:
  4825 ;;		On entry : 0/0
  4826 ;;		On exit  : 0/0
  4827 ;;		Unchanged: 0/0
  4828 ;; Data sizes:     COMRAM   BANK0   BANK1   BANK2   BANK3   BANK4   BANK5   BANK6   BANK7   BANK8   BANK9  BANK10  BANK1
      +1  BANK12  BANK13  BANK14  BANK15
  4829 ;;      Params:         2       0       0       0       0       0       0       0       0       0       0       0       
      +0       0       0       0       0
  4830 ;;      Locals:         0       0       0       0       0       0       0       0       0       0       0       0       
      +0       0       0       0       0
  4831 ;;      Temps:          0       0       0       0       0       0       0       0       0       0       0       0       
      +0       0       0       0       0
  4832 ;;      Totals:         2       0       0       0       0       0       0       0       0       0       0       0       
      +0       0       0       0       0
  4833 ;;Total ram usage:        2 bytes
  4834 ;; Hardware stack levels used: 1
  4835 ;; Hardware stack levels required when called: 4
  4836 ;; This function calls:
  4837 ;;		Nothing
  4838 ;; This function is called by:
  4839 ;;		_UART1_Initialize
  4840 ;; This function uses a non-reentrant model
  4841 ;;
  4842                           
  4843                           	psect	text17
  4844   002E4C                     __ptext17:
  4845                           	callstack 0
  4846   002E4C                     _UART1_SetRxInterruptHandler:
  4847                           	callstack 24
  4848   002E4C                     
  4849                           ;mcc_generated_files/uart1.c: 305:     UART1_RxInterruptHandler = InterruptHandler;
  4850   002E4C  C00A  F050         	movff	UART1_SetRxInterruptHandler@InterruptHandler,_UART1_RxInterruptHandler
  4851   002E50  C00B  F051         	movff	UART1_SetRxInterruptHandler@InterruptHandler+1,_UART1_RxInterruptHandler+1
  4852   002E54  0012               	return		;funcret
  4853   002E56                     __end_of_UART1_SetRxInterruptHandler:
  4854                           	callstack 0
  4855                           
  4856 ;; *************** function _UART1_SetOverrunErrorHandler *****************
  4857 ;; Defined at:
  4858 ;;		line 294 in file "mcc_generated_files/uart1.c"
  4859 ;; Parameters:    Size  Location     Type
  4860 ;;  interruptHan    2    9[COMRAM] PTR FTN()void 
  4861 ;;		 -> UART1_DefaultOverrunErrorHandler(1), 
  4862 ;; Auto vars:     Size  Location     Type
  4863 ;;		None
  4864 ;; Return value:  Size  Location     Type
  4865 ;;                  1    wreg      void 
  4866 ;; Registers used:
  4867 ;;		wreg, status,2, status,0
  4868 ;; Tracked objects:
  4869 ;;		On entry : 0/0
  4870 ;;		On exit  : 0/0
  4871 ;;		Unchanged: 0/0
  4872 ;; Data sizes:     COMRAM   BANK0   BANK1   BANK2   BANK3   BANK4   BANK5   BANK6   BANK7   BANK8   BANK9  BANK10  BANK1
      +1  BANK12  BANK13  BANK14  BANK15
  4873 ;;      Params:         2       0       0       0       0       0       0       0       0       0       0       0       
      +0       0       0       0       0
  4874 ;;      Locals:         0       0       0       0       0       0       0       0       0       0       0       0       
      +0       0       0       0       0
  4875 ;;      Temps:          0       0       0       0       0       0       0       0       0       0       0       0       
      +0       0       0       0       0
  4876 ;;      Totals:         2       0       0       0       0       0       0       0       0       0       0       0       
      +0       0       0       0       0
  4877 ;;Total ram usage:        2 bytes
  4878 ;; Hardware stack levels used: 1
  4879 ;; Hardware stack levels required when called: 4
  4880 ;; This function calls:
  4881 ;;		Nothing
  4882 ;; This function is called by:
  4883 ;;		_UART1_Initialize
  4884 ;; This function uses a non-reentrant model
  4885 ;;
  4886                           
  4887                           	psect	text18
  4888   002E56                     __ptext18:
  4889                           	callstack 0
  4890   002E56                     _UART1_SetOverrunErrorHandler:
  4891                           	callstack 24
  4892   002E56                     
  4893                           ;mcc_generated_files/uart1.c: 295:     UART1_OverrunErrorHandler = interruptHandler;
  4894   002E56  C00A  F1E1         	movff	UART1_SetOverrunErrorHandler@interruptHandler,_UART1_OverrunErrorHandler
  4895   002E5A  C00B  F1E2         	movff	UART1_SetOverrunErrorHandler@interruptHandler+1,_UART1_OverrunErrorHandler+1
  4896   002E5E  0012               	return		;funcret
  4897   002E60                     __end_of_UART1_SetOverrunErrorHandler:
  4898                           	callstack 0
  4899                           
  4900 ;; *************** function _UART1_SetFramingErrorHandler *****************
  4901 ;; Defined at:
  4902 ;;		line 290 in file "mcc_generated_files/uart1.c"
  4903 ;; Parameters:    Size  Location     Type
  4904 ;;  interruptHan    2    9[COMRAM] PTR FTN()void 
  4905 ;;		 -> UART1_DefaultFramingErrorHandler(1), 
  4906 ;; Auto vars:     Size  Location     Type
  4907 ;;		None
  4908 ;; Return value:  Size  Location     Type
  4909 ;;                  1    wreg      void 
  4910 ;; Registers used:
  4911 ;;		wreg, status,2, status,0
  4912 ;; Tracked objects:
  4913 ;;		On entry : 0/0
  4914 ;;		On exit  : 0/0
  4915 ;;		Unchanged: 0/0
  4916 ;; Data sizes:     COMRAM   BANK0   BANK1   BANK2   BANK3   BANK4   BANK5   BANK6   BANK7   BANK8   BANK9  BANK10  BANK1
      +1  BANK12  BANK13  BANK14  BANK15
  4917 ;;      Params:         2       0       0       0       0       0       0       0       0       0       0       0       
      +0       0       0       0       0
  4918 ;;      Locals:         0       0       0       0       0       0       0       0       0       0       0       0       
      +0       0       0       0       0
  4919 ;;      Temps:          0       0       0       0       0       0       0       0       0       0       0       0       
      +0       0       0       0       0
  4920 ;;      Totals:         2       0       0       0       0       0       0       0       0       0       0       0       
      +0       0       0       0       0
  4921 ;;Total ram usage:        2 bytes
  4922 ;; Hardware stack levels used: 1
  4923 ;; Hardware stack levels required when called: 4
  4924 ;; This function calls:
  4925 ;;		Nothing
  4926 ;; This function is called by:
  4927 ;;		_UART1_Initialize
  4928 ;; This function uses a non-reentrant model
  4929 ;;
  4930                           
  4931                           	psect	text19
  4932   002E60                     __ptext19:
  4933                           	callstack 0
  4934   002E60                     _UART1_SetFramingErrorHandler:
  4935                           	callstack 24
  4936   002E60                     
  4937                           ;mcc_generated_files/uart1.c: 291:     UART1_FramingErrorHandler = interruptHandler;
  4938   002E60  C00A  F04C         	movff	UART1_SetFramingErrorHandler@interruptHandler,_UART1_FramingErrorHandler
  4939   002E64  C00B  F04D         	movff	UART1_SetFramingErrorHandler@interruptHandler+1,_UART1_FramingErrorHandler+1
  4940   002E68  0012               	return		;funcret
  4941   002E6A                     __end_of_UART1_SetFramingErrorHandler:
  4942                           	callstack 0
  4943                           
  4944 ;; *************** function _UART1_SetErrorHandler *****************
  4945 ;; Defined at:
  4946 ;;		line 298 in file "mcc_generated_files/uart1.c"
  4947 ;; Parameters:    Size  Location     Type
  4948 ;;  interruptHan    2    9[COMRAM] PTR FTN()void 
  4949 ;;		 -> UART1_DefaultErrorHandler(1), 
  4950 ;; Auto vars:     Size  Location     Type
  4951 ;;		None
  4952 ;; Return value:  Size  Location     Type
  4953 ;;                  1    wreg      void 
  4954 ;; Registers used:
  4955 ;;		wreg, status,2, status,0
  4956 ;; Tracked objects:
  4957 ;;		On entry : 0/0
  4958 ;;		On exit  : 0/0
  4959 ;;		Unchanged: 0/0
  4960 ;; Data sizes:     COMRAM   BANK0   BANK1   BANK2   BANK3   BANK4   BANK5   BANK6   BANK7   BANK8   BANK9  BANK10  BANK1
      +1  BANK12  BANK13  BANK14  BANK15
  4961 ;;      Params:         2       0       0       0       0       0       0       0       0       0       0       0       
      +0       0       0       0       0
  4962 ;;      Locals:         0       0       0       0       0       0       0       0       0       0       0       0       
      +0       0       0       0       0
  4963 ;;      Temps:          0       0       0       0       0       0       0       0       0       0       0       0       
      +0       0       0       0       0
  4964 ;;      Totals:         2       0       0       0       0       0       0       0       0       0       0       0       
      +0       0       0       0       0
  4965 ;;Total ram usage:        2 bytes
  4966 ;; Hardware stack levels used: 1
  4967 ;; Hardware stack levels required when called: 4
  4968 ;; This function calls:
  4969 ;;		Nothing
  4970 ;; This function is called by:
  4971 ;;		_UART1_Initialize
  4972 ;; This function uses a non-reentrant model
  4973 ;;
  4974                           
  4975                           	psect	text20
  4976   002E6A                     __ptext20:
  4977                           	callstack 0
  4978   002E6A                     _UART1_SetErrorHandler:
  4979                           	callstack 24
  4980   002E6A                     
  4981                           ;mcc_generated_files/uart1.c: 299:     UART1_ErrorHandler = interruptHandler;
  4982   002E6A  C00A  F1DF         	movff	UART1_SetErrorHandler@interruptHandler,_UART1_ErrorHandler
  4983   002E6E  C00B  F1E0         	movff	UART1_SetErrorHandler@interruptHandler+1,_UART1_ErrorHandler+1
  4984   002E72  0012               	return		;funcret
  4985   002E74                     __end_of_UART1_SetErrorHandler:
  4986                           	callstack 0
  4987                           
  4988 ;; *************** function _TMR4_Initialize *****************
  4989 ;; Defined at:
  4990 ;;		line 66 in file "mcc_generated_files/tmr4.c"
  4991 ;; Parameters:    Size  Location     Type
  4992 ;;		None
  4993 ;; Auto vars:     Size  Location     Type
  4994 ;;		None
  4995 ;; Return value:  Size  Location     Type
  4996 ;;                  1    wreg      void 
  4997 ;; Registers used:
  4998 ;;		wreg, status,2, status,0, cstack
  4999 ;; Tracked objects:
  5000 ;;		On entry : 0/0
  5001 ;;		On exit  : 0/0
  5002 ;;		Unchanged: 0/0
  5003 ;; Data sizes:     COMRAM   BANK0   BANK1   BANK2   BANK3   BANK4   BANK5   BANK6   BANK7   BANK8   BANK9  BANK10  BANK1
      +1  BANK12  BANK13  BANK14  BANK15
  5004 ;;      Params:         0       0       0       0       0       0       0       0       0       0       0       0       
      +0       0       0       0       0
  5005 ;;      Locals:         0       0       0       0       0       0       0       0       0       0       0       0       
      +0       0       0       0       0
  5006 ;;      Temps:          0       0       0       0       0       0       0       0       0       0       0       0       
      +0       0       0       0       0
  5007 ;;      Totals:         0       0       0       0       0       0       0       0       0       0       0       0       
      +0       0       0       0       0
  5008 ;;Total ram usage:        0 bytes
  5009 ;; Hardware stack levels used: 1
  5010 ;; Hardware stack levels required when called: 5
  5011 ;; This function calls:
  5012 ;;		_TMR4_SetInterruptHandler
  5013 ;; This function is called by:
  5014 ;;		_SYSTEM_Initialize
  5015 ;; This function uses a non-reentrant model
  5016 ;;
  5017                           
  5018                           	psect	text21
  5019   002CE6                     __ptext21:
  5020                           	callstack 0
  5021   002CE6                     _TMR4_Initialize:
  5022                           	callstack 24
  5023   002CE6                     
  5024                           ;mcc_generated_files/tmr4.c: 71:     T4CLKCON = 0x04;
  5025   002CE6  0E04               	movlw	4
  5026   002CE8  6EA2               	movwf	162,c	;volatile
  5027                           
  5028                           ;mcc_generated_files/tmr4.c: 74:     T4HLT = 0x00;
  5029   002CEA  0E00               	movlw	0
  5030   002CEC  6EA1               	movwf	161,c	;volatile
  5031                           
  5032                           ;mcc_generated_files/tmr4.c: 77:     T4RST = 0x00;
  5033   002CEE  0E00               	movlw	0
  5034   002CF0  6EA3               	movwf	163,c	;volatile
  5035                           
  5036                           ;mcc_generated_files/tmr4.c: 80:     T4PR = 0xF1;
  5037   002CF2  0EF1               	movlw	241
  5038   002CF4  6E9F               	movwf	159,c	;volatile
  5039                           
  5040                           ;mcc_generated_files/tmr4.c: 83:     T4TMR = 0x00;
  5041   002CF6  0E00               	movlw	0
  5042   002CF8  6E9E               	movwf	158,c	;volatile
  5043   002CFA                     
  5044                           ;mcc_generated_files/tmr4.c: 86:     PIR7bits.TMR4IF = 0;
  5045   002CFA  0139               	movlb	57	; () banked
  5046   002CFC  91A7               	bcf	167,0,b	;volatile
  5047   002CFE                     
  5048                           ; BSR set to: 57
  5049                           ;mcc_generated_files/tmr4.c: 89:     PIE7bits.TMR4IE = 1;
  5050   002CFE  8197               	bsf	151,0,b	;volatile
  5051   002D00                     
  5052                           ; BSR set to: 57
  5053                           ;mcc_generated_files/tmr4.c: 92:     TMR4_SetInterruptHandler(TMR4_DefaultInterruptHandl
      +                          er);
  5054   002D00  0E00               	movlw	0
  5055   002D02  6E0A               	movwf	TMR4_SetInterruptHandler@InterruptHandler^0,c
  5056   002D04  0E00               	movlw	0
  5057   002D06  6E0B               	movwf	(TMR4_SetInterruptHandler@InterruptHandler+1)^0,c
  5058   002D08  EC3A  F017         	call	_TMR4_SetInterruptHandler	;wreg free
  5059   002D0C                     
  5060                           ;mcc_generated_files/tmr4.c: 95:     T4CON = 0xC3;
  5061   002D0C  0EC3               	movlw	195
  5062   002D0E  6EA0               	movwf	160,c	;volatile
  5063   002D10  0012               	return		;funcret
  5064   002D12                     __end_of_TMR4_Initialize:
  5065                           	callstack 0
  5066                           
  5067 ;; *************** function _TMR4_SetInterruptHandler *****************
  5068 ;; Defined at:
  5069 ;;		line 182 in file "mcc_generated_files/tmr4.c"
  5070 ;; Parameters:    Size  Location     Type
  5071 ;;  InterruptHan    2    9[COMRAM] PTR FTN()void 
  5072 ;;		 -> TMR4_DefaultInterruptHandler(1), 
  5073 ;; Auto vars:     Size  Location     Type
  5074 ;;		None
  5075 ;; Return value:  Size  Location     Type
  5076 ;;                  1    wreg      void 
  5077 ;; Registers used:
  5078 ;;		wreg, status,2, status,0
  5079 ;; Tracked objects:
  5080 ;;		On entry : 0/0
  5081 ;;		On exit  : 0/0
  5082 ;;		Unchanged: 0/0
  5083 ;; Data sizes:     COMRAM   BANK0   BANK1   BANK2   BANK3   BANK4   BANK5   BANK6   BANK7   BANK8   BANK9  BANK10  BANK1
      +1  BANK12  BANK13  BANK14  BANK15
  5084 ;;      Params:         2       0       0       0       0       0       0       0       0       0       0       0       
      +0       0       0       0       0
  5085 ;;      Locals:         0       0       0       0       0       0       0       0       0       0       0       0       
      +0       0       0       0       0
  5086 ;;      Temps:          0       0       0       0       0       0       0       0       0       0       0       0       
      +0       0       0       0       0
  5087 ;;      Totals:         2       0       0       0       0       0       0       0       0       0       0       0       
      +0       0       0       0       0
  5088 ;;Total ram usage:        2 bytes
  5089 ;; Hardware stack levels used: 1
  5090 ;; Hardware stack levels required when called: 4
  5091 ;; This function calls:
  5092 ;;		Nothing
  5093 ;; This function is called by:
  5094 ;;		_TMR4_Initialize
  5095 ;; This function uses a non-reentrant model
  5096 ;;
  5097                           
  5098                           	psect	text22
  5099   002E74                     __ptext22:
  5100                           	callstack 0
  5101   002E74                     _TMR4_SetInterruptHandler:
  5102                           	callstack 24
  5103   002E74                     
  5104                           ;mcc_generated_files/tmr4.c: 183:     TMR4_InterruptHandler = InterruptHandler;
  5105   002E74  C00A  F1DB         	movff	TMR4_SetInterruptHandler@InterruptHandler,_TMR4_InterruptHandler
  5106   002E78  C00B  F1DC         	movff	TMR4_SetInterruptHandler@InterruptHandler+1,_TMR4_InterruptHandler+1
  5107   002E7C  0012               	return		;funcret
  5108   002E7E                     __end_of_TMR4_SetInterruptHandler:
  5109                           	callstack 0
  5110                           
  5111 ;; *************** function _TMR2_Initialize *****************
  5112 ;; Defined at:
  5113 ;;		line 73 in file "mcc_generated_files/tmr2.c"
  5114 ;; Parameters:    Size  Location     Type
  5115 ;;		None
  5116 ;; Auto vars:     Size  Location     Type
  5117 ;;		None
  5118 ;; Return value:  Size  Location     Type
  5119 ;;                  1    wreg      void 
  5120 ;; Registers used:
  5121 ;;		wreg, status,2, status,0, cstack
  5122 ;; Tracked objects:
  5123 ;;		On entry : 0/0
  5124 ;;		On exit  : 0/0
  5125 ;;		Unchanged: 0/0
  5126 ;; Data sizes:     COMRAM   BANK0   BANK1   BANK2   BANK3   BANK4   BANK5   BANK6   BANK7   BANK8   BANK9  BANK10  BANK1
      +1  BANK12  BANK13  BANK14  BANK15
  5127 ;;      Params:         0       0       0       0       0       0       0       0       0       0       0       0       
      +0       0       0       0       0
  5128 ;;      Locals:         0       0       0       0       0       0       0       0       0       0       0       0       
      +0       0       0       0       0
  5129 ;;      Temps:          0       0       0       0       0       0       0       0       0       0       0       0       
      +0       0       0       0       0
  5130 ;;      Totals:         0       0       0       0       0       0       0       0       0       0       0       0       
      +0       0       0       0       0
  5131 ;;Total ram usage:        0 bytes
  5132 ;; Hardware stack levels used: 1
  5133 ;; Hardware stack levels required when called: 5
  5134 ;; This function calls:
  5135 ;;		_TMR2_SetInterruptHandler
  5136 ;; This function is called by:
  5137 ;;		_SYSTEM_Initialize
  5138 ;; This function uses a non-reentrant model
  5139 ;;
  5140                           
  5141                           	psect	text23
  5142   002D12                     __ptext23:
  5143                           	callstack 0
  5144   002D12                     _TMR2_Initialize:
  5145                           	callstack 24
  5146   002D12                     
  5147                           ;mcc_generated_files/tmr2.c: 78:     T2CLKCON = 0x01;
  5148   002D12  0E01               	movlw	1
  5149   002D14  6EAE               	movwf	174,c	;volatile
  5150                           
  5151                           ;mcc_generated_files/tmr2.c: 81:     T2HLT = 0x00;
  5152   002D16  0E00               	movlw	0
  5153   002D18  6EAD               	movwf	173,c	;volatile
  5154                           
  5155                           ;mcc_generated_files/tmr2.c: 84:     T2RST = 0x00;
  5156   002D1A  0E00               	movlw	0
  5157   002D1C  6EAF               	movwf	175,c	;volatile
  5158                           
  5159                           ;mcc_generated_files/tmr2.c: 87:     T2PR = 0xC7;
  5160   002D1E  0EC7               	movlw	199
  5161   002D20  6EAB               	movwf	171,c	;volatile
  5162                           
  5163                           ;mcc_generated_files/tmr2.c: 90:     T2TMR = 0x00;
  5164   002D22  0E00               	movlw	0
  5165   002D24  6EAA               	movwf	170,c	;volatile
  5166   002D26                     
  5167                           ;mcc_generated_files/tmr2.c: 93:     PIR4bits.TMR2IF = 0;
  5168   002D26  0139               	movlb	57	; () banked
  5169   002D28  95A4               	bcf	164,2,b	;volatile
  5170   002D2A                     
  5171                           ; BSR set to: 57
  5172                           ;mcc_generated_files/tmr2.c: 96:     PIE4bits.TMR2IE = 1;
  5173   002D2A  8594               	bsf	148,2,b	;volatile
  5174   002D2C                     
  5175                           ; BSR set to: 57
  5176                           ;mcc_generated_files/tmr2.c: 99:     TMR2_SetInterruptHandler(TMR2_DefaultInterruptHandl
      +                          er);
  5177   002D2C  0E00               	movlw	0
  5178   002D2E  6E0A               	movwf	TMR2_SetInterruptHandler@InterruptHandler^0,c
  5179   002D30  0E00               	movlw	0
  5180   002D32  6E0B               	movwf	(TMR2_SetInterruptHandler@InterruptHandler+1)^0,c
  5181   002D34  EC3F  F017         	call	_TMR2_SetInterruptHandler	;wreg free
  5182   002D38                     
  5183                           ;mcc_generated_files/tmr2.c: 102:     T2CON = 0xA0;
  5184   002D38  0EA0               	movlw	160
  5185   002D3A  6EAC               	movwf	172,c	;volatile
  5186   002D3C  0012               	return		;funcret
  5187   002D3E                     __end_of_TMR2_Initialize:
  5188                           	callstack 0
  5189                           
  5190 ;; *************** function _TMR2_SetInterruptHandler *****************
  5191 ;; Defined at:
  5192 ;;		line 236 in file "mcc_generated_files/tmr2.c"
  5193 ;; Parameters:    Size  Location     Type
  5194 ;;  InterruptHan    2    9[COMRAM] PTR FTN()void 
  5195 ;;		 -> TMR2_DefaultInterruptHandler(1), 
  5196 ;; Auto vars:     Size  Location     Type
  5197 ;;		None
  5198 ;; Return value:  Size  Location     Type
  5199 ;;                  1    wreg      void 
  5200 ;; Registers used:
  5201 ;;		wreg, status,2, status,0
  5202 ;; Tracked objects:
  5203 ;;		On entry : 0/0
  5204 ;;		On exit  : 0/0
  5205 ;;		Unchanged: 0/0
  5206 ;; Data sizes:     COMRAM   BANK0   BANK1   BANK2   BANK3   BANK4   BANK5   BANK6   BANK7   BANK8   BANK9  BANK10  BANK1
      +1  BANK12  BANK13  BANK14  BANK15
  5207 ;;      Params:         2       0       0       0       0       0       0       0       0       0       0       0       
      +0       0       0       0       0
  5208 ;;      Locals:         0       0       0       0       0       0       0       0       0       0       0       0       
      +0       0       0       0       0
  5209 ;;      Temps:          0       0       0       0       0       0       0       0       0       0       0       0       
      +0       0       0       0       0
  5210 ;;      Totals:         2       0       0       0       0       0       0       0       0       0       0       0       
      +0       0       0       0       0
  5211 ;;Total ram usage:        2 bytes
  5212 ;; Hardware stack levels used: 1
  5213 ;; Hardware stack levels required when called: 4
  5214 ;; This function calls:
  5215 ;;		Nothing
  5216 ;; This function is called by:
  5217 ;;		_TMR2_Initialize
  5218 ;; This function uses a non-reentrant model
  5219 ;;
  5220                           
  5221                           	psect	text24
  5222   002E7E                     __ptext24:
  5223                           	callstack 0
  5224   002E7E                     _TMR2_SetInterruptHandler:
  5225                           	callstack 24
  5226   002E7E                     
  5227                           ;mcc_generated_files/tmr2.c: 237:     TMR2_InterruptHandler = InterruptHandler;
  5228   002E7E  C00A  F1DD         	movff	TMR2_SetInterruptHandler@InterruptHandler,_TMR2_InterruptHandler
  5229   002E82  C00B  F1DE         	movff	TMR2_SetInterruptHandler@InterruptHandler+1,_TMR2_InterruptHandler+1
  5230   002E86  0012               	return		;funcret
  5231   002E88                     __end_of_TMR2_SetInterruptHandler:
  5232                           	callstack 0
  5233                           
  5234 ;; *************** function _SPI1_Initialize *****************
  5235 ;; Defined at:
  5236 ;;		line 64 in file "mcc_generated_files/spi1.c"
  5237 ;; Parameters:    Size  Location     Type
  5238 ;;		None
  5239 ;; Auto vars:     Size  Location     Type
  5240 ;;		None
  5241 ;; Return value:  Size  Location     Type
  5242 ;;                  1    wreg      void 
  5243 ;; Registers used:
  5244 ;;		wreg, status,2
  5245 ;; Tracked objects:
  5246 ;;		On entry : 0/0
  5247 ;;		On exit  : 0/0
  5248 ;;		Unchanged: 0/0
  5249 ;; Data sizes:     COMRAM   BANK0   BANK1   BANK2   BANK3   BANK4   BANK5   BANK6   BANK7   BANK8   BANK9  BANK10  BANK1
      +1  BANK12  BANK13  BANK14  BANK15
  5250 ;;      Params:         0       0       0       0       0       0       0       0       0       0       0       0       
      +0       0       0       0       0
  5251 ;;      Locals:         0       0       0       0       0       0       0       0       0       0       0       0       
      +0       0       0       0       0
  5252 ;;      Temps:          0       0       0       0       0       0       0       0       0       0       0       0       
      +0       0       0       0       0
  5253 ;;      Totals:         0       0       0       0       0       0       0       0       0       0       0       0       
      +0       0       0       0       0
  5254 ;;Total ram usage:        0 bytes
  5255 ;; Hardware stack levels used: 1
  5256 ;; Hardware stack levels required when called: 4
  5257 ;; This function calls:
  5258 ;;		Nothing
  5259 ;; This function is called by:
  5260 ;;		_SYSTEM_Initialize
  5261 ;; This function uses a non-reentrant model
  5262 ;;
  5263                           
  5264                           	psect	text25
  5265   002DDC                     __ptext25:
  5266                           	callstack 0
  5267   002DDC                     _SPI1_Initialize:
  5268                           	callstack 25
  5269   002DDC                     
  5270                           ;mcc_generated_files/spi1.c: 67:     SPI1CON0 = 0x02;
  5271   002DDC  0E02               	movlw	2
  5272   002DDE  013D               	movlb	61	; () banked
  5273   002DE0  6F14               	movwf	20,b	;volatile
  5274                           
  5275                           ;mcc_generated_files/spi1.c: 69:     SPI1CON1 = 0x40;
  5276   002DE2  0E40               	movlw	64
  5277   002DE4  6F15               	movwf	21,b	;volatile
  5278                           
  5279                           ;mcc_generated_files/spi1.c: 71:     SPI1CON2 = 0x00;
  5280   002DE6  0E00               	movlw	0
  5281   002DE8  6F16               	movwf	22,b	;volatile
  5282                           
  5283                           ;mcc_generated_files/spi1.c: 73:     SPI1CLK = 0x00;
  5284   002DEA  0E00               	movlw	0
  5285   002DEC  6F1C               	movwf	28,b	;volatile
  5286                           
  5287                           ;mcc_generated_files/spi1.c: 75:     SPI1BAUD = 0x03;
  5288   002DEE  0E03               	movlw	3
  5289   002DF0  6F19               	movwf	25,b	;volatile
  5290   002DF2                     
  5291                           ; BSR set to: 61
  5292                           ;mcc_generated_files/spi1.c: 76:     TRISCbits.TRISC3 = 0;
  5293   002DF2  96C4               	bcf	196,3,c	;volatile
  5294   002DF4                     
  5295                           ; BSR set to: 61
  5296   002DF4  0012               	return		;funcret
  5297   002DF6                     __end_of_SPI1_Initialize:
  5298                           	callstack 0
  5299                           
  5300 ;; *************** function _PMD_Initialize *****************
  5301 ;; Defined at:
  5302 ;;		line 78 in file "mcc_generated_files/mcc.c"
  5303 ;; Parameters:    Size  Location     Type
  5304 ;;		None
  5305 ;; Auto vars:     Size  Location     Type
  5306 ;;		None
  5307 ;; Return value:  Size  Location     Type
  5308 ;;                  1    wreg      void 
  5309 ;; Registers used:
  5310 ;;		wreg, status,2
  5311 ;; Tracked objects:
  5312 ;;		On entry : 0/0
  5313 ;;		On exit  : 0/0
  5314 ;;		Unchanged: 0/0
  5315 ;; Data sizes:     COMRAM   BANK0   BANK1   BANK2   BANK3   BANK4   BANK5   BANK6   BANK7   BANK8   BANK9  BANK10  BANK1
      +1  BANK12  BANK13  BANK14  BANK15
  5316 ;;      Params:         0       0       0       0       0       0       0       0       0       0       0       0       
      +0       0       0       0       0
  5317 ;;      Locals:         0       0       0       0       0       0       0       0       0       0       0       0       
      +0       0       0       0       0
  5318 ;;      Temps:          0       0       0       0       0       0       0       0       0       0       0       0       
      +0       0       0       0       0
  5319 ;;      Totals:         0       0       0       0       0       0       0       0       0       0       0       0       
      +0       0       0       0       0
  5320 ;;Total ram usage:        0 bytes
  5321 ;; Hardware stack levels used: 1
  5322 ;; Hardware stack levels required when called: 4
  5323 ;; This function calls:
  5324 ;;		Nothing
  5325 ;; This function is called by:
  5326 ;;		_SYSTEM_Initialize
  5327 ;; This function uses a non-reentrant model
  5328 ;;
  5329                           
  5330                           	psect	text26
  5331   002D94                     __ptext26:
  5332                           	callstack 0
  5333   002D94                     _PMD_Initialize:
  5334                           	callstack 25
  5335   002D94                     
  5336                           ;mcc_generated_files/mcc.c: 81:     PMD0 = 0x00;
  5337   002D94  0E00               	movlw	0
  5338   002D96  0139               	movlb	57	; () banked
  5339   002D98  6FC0               	movwf	192,b	;volatile
  5340                           
  5341                           ;mcc_generated_files/mcc.c: 83:     PMD1 = 0x00;
  5342   002D9A  0E00               	movlw	0
  5343   002D9C  6FC1               	movwf	193,b	;volatile
  5344                           
  5345                           ;mcc_generated_files/mcc.c: 85:     PMD2 = 0x00;
  5346   002D9E  0E00               	movlw	0
  5347   002DA0  6FC2               	movwf	194,b	;volatile
  5348                           
  5349                           ;mcc_generated_files/mcc.c: 87:     PMD3 = 0x00;
  5350   002DA2  0E00               	movlw	0
  5351   002DA4  6FC3               	movwf	195,b	;volatile
  5352                           
  5353                           ;mcc_generated_files/mcc.c: 89:     PMD4 = 0x00;
  5354   002DA6  0E00               	movlw	0
  5355   002DA8  6FC4               	movwf	196,b	;volatile
  5356                           
  5357                           ;mcc_generated_files/mcc.c: 91:     PMD5 = 0x00;
  5358   002DAA  0E00               	movlw	0
  5359   002DAC  6FC5               	movwf	197,b	;volatile
  5360                           
  5361                           ;mcc_generated_files/mcc.c: 93:     PMD6 = 0x00;
  5362   002DAE  0E00               	movlw	0
  5363   002DB0  6FC6               	movwf	198,b	;volatile
  5364                           
  5365                           ;mcc_generated_files/mcc.c: 95:     PMD7 = 0x00;
  5366   002DB2  0E00               	movlw	0
  5367   002DB4  6FC7               	movwf	199,b	;volatile
  5368   002DB6                     
  5369                           ; BSR set to: 57
  5370   002DB6  0012               	return		;funcret
  5371   002DB8                     __end_of_PMD_Initialize:
  5372                           	callstack 0
  5373                           
  5374 ;; *************** function _PIN_MANAGER_Initialize *****************
  5375 ;; Defined at:
  5376 ;;		line 55 in file "mcc_generated_files/pin_manager.c"
  5377 ;; Parameters:    Size  Location     Type
  5378 ;;		None
  5379 ;; Auto vars:     Size  Location     Type
  5380 ;;		None
  5381 ;; Return value:  Size  Location     Type
  5382 ;;                  1    wreg      void 
  5383 ;; Registers used:
  5384 ;;		wreg, status,2
  5385 ;; Tracked objects:
  5386 ;;		On entry : 0/0
  5387 ;;		On exit  : 0/0
  5388 ;;		Unchanged: 0/0
  5389 ;; Data sizes:     COMRAM   BANK0   BANK1   BANK2   BANK3   BANK4   BANK5   BANK6   BANK7   BANK8   BANK9  BANK10  BANK1
      +1  BANK12  BANK13  BANK14  BANK15
  5390 ;;      Params:         0       0       0       0       0       0       0       0       0       0       0       0       
      +0       0       0       0       0
  5391 ;;      Locals:         0       0       0       0       0       0       0       0       0       0       0       0       
      +0       0       0       0       0
  5392 ;;      Temps:          0       0       0       0       0       0       0       0       0       0       0       0       
      +0       0       0       0       0
  5393 ;;      Totals:         0       0       0       0       0       0       0       0       0       0       0       0       
      +0       0       0       0       0
  5394 ;;Total ram usage:        0 bytes
  5395 ;; Hardware stack levels used: 1
  5396 ;; Hardware stack levels required when called: 4
  5397 ;; This function calls:
  5398 ;;		Nothing
  5399 ;; This function is called by:
  5400 ;;		_SYSTEM_Initialize
  5401 ;; This function uses a non-reentrant model
  5402 ;;
  5403                           
  5404                           	psect	text27
  5405   002678                     __ptext27:
  5406                           	callstack 0
  5407   002678                     _PIN_MANAGER_Initialize:
  5408                           	callstack 25
  5409   002678                     
  5410                           ;mcc_generated_files/pin_manager.c: 60:     LATE = 0x00;
  5411   002678  0E00               	movlw	0
  5412   00267A  6EBE               	movwf	190,c	;volatile
  5413                           
  5414                           ;mcc_generated_files/pin_manager.c: 61:     LATD = 0x00;
  5415   00267C  0E00               	movlw	0
  5416   00267E  6EBD               	movwf	189,c	;volatile
  5417                           
  5418                           ;mcc_generated_files/pin_manager.c: 62:     LATA = 0x00;
  5419   002680  0E00               	movlw	0
  5420   002682  6EBA               	movwf	186,c	;volatile
  5421                           
  5422                           ;mcc_generated_files/pin_manager.c: 63:     LATB = 0x00;
  5423   002684  0E00               	movlw	0
  5424   002686  6EBB               	movwf	187,c	;volatile
  5425                           
  5426                           ;mcc_generated_files/pin_manager.c: 64:     LATC = 0x00;
  5427   002688  0E00               	movlw	0
  5428   00268A  6EBC               	movwf	188,c	;volatile
  5429                           
  5430                           ;mcc_generated_files/pin_manager.c: 69:     TRISE = 0x07;
  5431   00268C  0E07               	movlw	7
  5432   00268E  6EC6               	movwf	198,c	;volatile
  5433   002690                     
  5434                           ;mcc_generated_files/pin_manager.c: 70:     TRISA = 0xFF;
  5435   002690  68C2               	setf	194,c	;volatile
  5436   002692                     
  5437                           ;mcc_generated_files/pin_manager.c: 71:     TRISB = 0xFF;
  5438   002692  68C3               	setf	195,c	;volatile
  5439                           
  5440                           ;mcc_generated_files/pin_manager.c: 72:     TRISC = 0x93;
  5441   002694  0E93               	movlw	147
  5442   002696  6EC4               	movwf	196,c	;volatile
  5443                           
  5444                           ;mcc_generated_files/pin_manager.c: 73:     TRISD = 0x3F;
  5445   002698  0E3F               	movlw	63
  5446   00269A  6EC5               	movwf	197,c	;volatile
  5447   00269C                     
  5448                           ;mcc_generated_files/pin_manager.c: 78:     ANSELD = 0xFF;
  5449   00269C  013A               	movlb	58	; () banked
  5450   00269E  6970               	setf	112,b	;volatile
  5451                           
  5452                           ;mcc_generated_files/pin_manager.c: 79:     ANSELC = 0x67;
  5453   0026A0  0E67               	movlw	103
  5454   0026A2  6F60               	movwf	96,b	;volatile
  5455   0026A4                     
  5456                           ; BSR set to: 58
  5457                           ;mcc_generated_files/pin_manager.c: 80:     ANSELB = 0xFF;
  5458   0026A4  6950               	setf	80,b	;volatile
  5459                           
  5460                           ;mcc_generated_files/pin_manager.c: 81:     ANSELE = 0x07;
  5461   0026A6  0E07               	movlw	7
  5462   0026A8  6F80               	movwf	128,b	;volatile
  5463   0026AA                     
  5464                           ; BSR set to: 58
  5465                           ;mcc_generated_files/pin_manager.c: 82:     ANSELA = 0xFF;
  5466   0026AA  6940               	setf	64,b	;volatile
  5467                           
  5468                           ;mcc_generated_files/pin_manager.c: 87:     WPUD = 0x00;
  5469   0026AC  0E00               	movlw	0
  5470   0026AE  6F71               	movwf	113,b	;volatile
  5471                           
  5472                           ;mcc_generated_files/pin_manager.c: 88:     WPUE = 0x00;
  5473   0026B0  0E00               	movlw	0
  5474   0026B2  6F81               	movwf	129,b	;volatile
  5475                           
  5476                           ;mcc_generated_files/pin_manager.c: 89:     WPUB = 0x00;
  5477   0026B4  0E00               	movlw	0
  5478   0026B6  6F51               	movwf	81,b	;volatile
  5479                           
  5480                           ;mcc_generated_files/pin_manager.c: 90:     WPUA = 0x00;
  5481   0026B8  0E00               	movlw	0
  5482   0026BA  6F41               	movwf	65,b	;volatile
  5483                           
  5484                           ;mcc_generated_files/pin_manager.c: 91:     WPUC = 0x00;
  5485   0026BC  0E00               	movlw	0
  5486   0026BE  6F61               	movwf	97,b	;volatile
  5487                           
  5488                           ;mcc_generated_files/pin_manager.c: 96:     RB1I2C = 0x00;
  5489   0026C0  0E00               	movlw	0
  5490   0026C2  6F5A               	movwf	90,b	;volatile
  5491                           
  5492                           ;mcc_generated_files/pin_manager.c: 97:     RB2I2C = 0x00;
  5493   0026C4  0E00               	movlw	0
  5494   0026C6  6F5B               	movwf	91,b	;volatile
  5495                           
  5496                           ;mcc_generated_files/pin_manager.c: 98:     RC3I2C = 0x00;
  5497   0026C8  0E00               	movlw	0
  5498   0026CA  6F6A               	movwf	106,b	;volatile
  5499                           
  5500                           ;mcc_generated_files/pin_manager.c: 99:     RC4I2C = 0x00;
  5501   0026CC  0E00               	movlw	0
  5502   0026CE  6F6B               	movwf	107,b	;volatile
  5503                           
  5504                           ;mcc_generated_files/pin_manager.c: 100:     RD0I2C = 0x00;
  5505   0026D0  0E00               	movlw	0
  5506   0026D2  6F7A               	movwf	122,b	;volatile
  5507                           
  5508                           ;mcc_generated_files/pin_manager.c: 101:     RD1I2C = 0x00;
  5509   0026D4  0E00               	movlw	0
  5510   0026D6  6F7B               	movwf	123,b	;volatile
  5511                           
  5512                           ;mcc_generated_files/pin_manager.c: 106:     ODCONE = 0x00;
  5513   0026D8  0E00               	movlw	0
  5514   0026DA  6F82               	movwf	130,b	;volatile
  5515                           
  5516                           ;mcc_generated_files/pin_manager.c: 107:     ODCONA = 0x00;
  5517   0026DC  0E00               	movlw	0
  5518   0026DE  6F42               	movwf	66,b	;volatile
  5519                           
  5520                           ;mcc_generated_files/pin_manager.c: 108:     ODCONB = 0x00;
  5521   0026E0  0E00               	movlw	0
  5522   0026E2  6F52               	movwf	82,b	;volatile
  5523                           
  5524                           ;mcc_generated_files/pin_manager.c: 109:     ODCONC = 0x00;
  5525   0026E4  0E00               	movlw	0
  5526   0026E6  6F62               	movwf	98,b	;volatile
  5527                           
  5528                           ;mcc_generated_files/pin_manager.c: 110:     ODCOND = 0x00;
  5529   0026E8  0E00               	movlw	0
  5530   0026EA  6F72               	movwf	114,b	;volatile
  5531   0026EC                     
  5532                           ; BSR set to: 58
  5533                           ;mcc_generated_files/pin_manager.c: 115:     SLRCONA = 0xFF;
  5534   0026EC  6943               	setf	67,b	;volatile
  5535   0026EE                     
  5536                           ; BSR set to: 58
  5537                           ;mcc_generated_files/pin_manager.c: 116:     SLRCONB = 0xFF;
  5538   0026EE  6953               	setf	83,b	;volatile
  5539   0026F0                     
  5540                           ; BSR set to: 58
  5541                           ;mcc_generated_files/pin_manager.c: 117:     SLRCONC = 0xFF;
  5542   0026F0  6963               	setf	99,b	;volatile
  5543   0026F2                     
  5544                           ; BSR set to: 58
  5545                           ;mcc_generated_files/pin_manager.c: 118:     SLRCOND = 0xFF;
  5546   0026F2  6973               	setf	115,b	;volatile
  5547                           
  5548                           ;mcc_generated_files/pin_manager.c: 119:     SLRCONE = 0x07;
  5549   0026F4  0E07               	movlw	7
  5550   0026F6  6F83               	movwf	131,b	;volatile
  5551   0026F8                     
  5552                           ; BSR set to: 58
  5553                           ;mcc_generated_files/pin_manager.c: 124:     INLVLA = 0xFF;
  5554   0026F8  6944               	setf	68,b	;volatile
  5555   0026FA                     
  5556                           ; BSR set to: 58
  5557                           ;mcc_generated_files/pin_manager.c: 125:     INLVLB = 0xFF;
  5558   0026FA  6954               	setf	84,b	;volatile
  5559   0026FC                     
  5560                           ; BSR set to: 58
  5561                           ;mcc_generated_files/pin_manager.c: 126:     INLVLC = 0xFF;
  5562   0026FC  6964               	setf	100,b	;volatile
  5563   0026FE                     
  5564                           ; BSR set to: 58
  5565                           ;mcc_generated_files/pin_manager.c: 127:     INLVLD = 0xFF;
  5566   0026FE  6974               	setf	116,b	;volatile
  5567                           
  5568                           ;mcc_generated_files/pin_manager.c: 128:     INLVLE = 0x0F;
  5569   002700  0E0F               	movlw	15
  5570   002702  6F84               	movwf	132,b	;volatile
  5571                           
  5572                           ;mcc_generated_files/pin_manager.c: 137:     SPI1SCKPPS = 0x13;
  5573   002704  0E13               	movlw	19
  5574   002706  6FDE               	movwf	222,b	;volatile
  5575                           
  5576                           ;mcc_generated_files/pin_manager.c: 138:     RC3PPS = 0x1E;
  5577   002708  0E1E               	movlw	30
  5578   00270A  6F13               	movwf	19,b	;volatile
  5579                           
  5580                           ;mcc_generated_files/pin_manager.c: 139:     RC5PPS = 0x1F;
  5581   00270C  0E1F               	movlw	31
  5582   00270E  6F15               	movwf	21,b	;volatile
  5583                           
  5584                           ;mcc_generated_files/pin_manager.c: 140:     RC6PPS = 0x13;
  5585   002710  0E13               	movlw	19
  5586   002712  6F16               	movwf	22,b	;volatile
  5587                           
  5588                           ;mcc_generated_files/pin_manager.c: 141:     U1RXPPS = 0x17;
  5589   002714  0E17               	movlw	23
  5590   002716  6FE5               	movwf	229,b	;volatile
  5591                           
  5592                           ;mcc_generated_files/pin_manager.c: 142:     SPI1SDIPPS = 0x14;
  5593   002718  0E14               	movlw	20
  5594   00271A  6FDF               	movwf	223,b	;volatile
  5595   00271C                     
  5596                           ; BSR set to: 58
  5597   00271C  0012               	return		;funcret
  5598   00271E                     __end_of_PIN_MANAGER_Initialize:
  5599                           	callstack 0
  5600                           
  5601 ;; *************** function _OSCILLATOR_Initialize *****************
  5602 ;; Defined at:
  5603 ;;		line 64 in file "mcc_generated_files/mcc.c"
  5604 ;; Parameters:    Size  Location     Type
  5605 ;;		None
  5606 ;; Auto vars:     Size  Location     Type
  5607 ;;		None
  5608 ;; Return value:  Size  Location     Type
  5609 ;;                  1    wreg      void 
  5610 ;; Registers used:
  5611 ;;		wreg, status,2
  5612 ;; Tracked objects:
  5613 ;;		On entry : 0/0
  5614 ;;		On exit  : 0/0
  5615 ;;		Unchanged: 0/0
  5616 ;; Data sizes:     COMRAM   BANK0   BANK1   BANK2   BANK3   BANK4   BANK5   BANK6   BANK7   BANK8   BANK9  BANK10  BANK1
      +1  BANK12  BANK13  BANK14  BANK15
  5617 ;;      Params:         0       0       0       0       0       0       0       0       0       0       0       0       
      +0       0       0       0       0
  5618 ;;      Locals:         0       0       0       0       0       0       0       0       0       0       0       0       
      +0       0       0       0       0
  5619 ;;      Temps:          0       0       0       0       0       0       0       0       0       0       0       0       
      +0       0       0       0       0
  5620 ;;      Totals:         0       0       0       0       0       0       0       0       0       0       0       0       
      +0       0       0       0       0
  5621 ;;Total ram usage:        0 bytes
  5622 ;; Hardware stack levels used: 1
  5623 ;; Hardware stack levels required when called: 4
  5624 ;; This function calls:
  5625 ;;		Nothing
  5626 ;; This function is called by:
  5627 ;;		_SYSTEM_Initialize
  5628 ;; This function uses a non-reentrant model
  5629 ;;
  5630                           
  5631                           	psect	text28
  5632   002DF6                     __ptext28:
  5633                           	callstack 0
  5634   002DF6                     _OSCILLATOR_Initialize:
  5635                           	callstack 25
  5636   002DF6                     
  5637                           ;mcc_generated_files/mcc.c: 67:     OSCCON1 = 0x60;
  5638   002DF6  0E60               	movlw	96
  5639   002DF8  0139               	movlb	57	; () banked
  5640   002DFA  6FD9               	movwf	217,b	;volatile
  5641                           
  5642                           ;mcc_generated_files/mcc.c: 69:     OSCCON3 = 0x00;
  5643   002DFC  0E00               	movlw	0
  5644   002DFE  6FDB               	movwf	219,b	;volatile
  5645                           
  5646                           ;mcc_generated_files/mcc.c: 71:     OSCEN = 0x00;
  5647   002E00  0E00               	movlw	0
  5648   002E02  6FDD               	movwf	221,b	;volatile
  5649                           
  5650                           ;mcc_generated_files/mcc.c: 73:     OSCFRQ = 0x08;
  5651   002E04  0E08               	movlw	8
  5652   002E06  6FDF               	movwf	223,b	;volatile
  5653                           
  5654                           ;mcc_generated_files/mcc.c: 75:     OSCTUNE = 0x00;
  5655   002E08  0E00               	movlw	0
  5656   002E0A  6FDE               	movwf	222,b	;volatile
  5657   002E0C                     
  5658                           ; BSR set to: 57
  5659   002E0C  0012               	return		;funcret
  5660   002E0E                     __end_of_OSCILLATOR_Initialize:
  5661                           	callstack 0
  5662                           
  5663 ;; *************** function _INTERRUPT_Initialize *****************
  5664 ;; Defined at:
  5665 ;;		line 52 in file "mcc_generated_files/interrupt_manager.c"
  5666 ;; Parameters:    Size  Location     Type
  5667 ;;		None
  5668 ;; Auto vars:     Size  Location     Type
  5669 ;;		None
  5670 ;; Return value:  Size  Location     Type
  5671 ;;                  1    wreg      void 
  5672 ;; Registers used:
  5673 ;;		None
  5674 ;; Tracked objects:
  5675 ;;		On entry : 0/0
  5676 ;;		On exit  : 0/0
  5677 ;;		Unchanged: 0/0
  5678 ;; Data sizes:     COMRAM   BANK0   BANK1   BANK2   BANK3   BANK4   BANK5   BANK6   BANK7   BANK8   BANK9  BANK10  BANK1
      +1  BANK12  BANK13  BANK14  BANK15
  5679 ;;      Params:         0       0       0       0       0       0       0       0       0       0       0       0       
      +0       0       0       0       0
  5680 ;;      Locals:         0       0       0       0       0       0       0       0       0       0       0       0       
      +0       0       0       0       0
  5681 ;;      Temps:          0       0       0       0       0       0       0       0       0       0       0       0       
      +0       0       0       0       0
  5682 ;;      Totals:         0       0       0       0       0       0       0       0       0       0       0       0       
      +0       0       0       0       0
  5683 ;;Total ram usage:        0 bytes
  5684 ;; Hardware stack levels used: 1
  5685 ;; Hardware stack levels required when called: 4
  5686 ;; This function calls:
  5687 ;;		Nothing
  5688 ;; This function is called by:
  5689 ;;		_SYSTEM_Initialize
  5690 ;; This function uses a non-reentrant model
  5691 ;;
  5692                           
  5693                           	psect	text29
  5694   002E9A                     __ptext29:
  5695                           	callstack 0
  5696   002E9A                     _INTERRUPT_Initialize:
  5697                           	callstack 25
  5698   002E9A                     
  5699                           ;mcc_generated_files/interrupt_manager.c: 55:     INTCON0bits.IPEN = 0;
  5700   002E9A  9AD2               	bcf	210,5,c	;volatile
  5701   002E9C  0012               	return		;funcret
  5702   002E9E                     __end_of_INTERRUPT_Initialize:
  5703                           	callstack 0
  5704                           
  5705 ;; *************** function _FVR_Initialize *****************
  5706 ;; Defined at:
  5707 ;;		line 58 in file "mcc_generated_files/fvr.c"
  5708 ;; Parameters:    Size  Location     Type
  5709 ;;		None
  5710 ;; Auto vars:     Size  Location     Type
  5711 ;;		None
  5712 ;; Return value:  Size  Location     Type
  5713 ;;                  1    wreg      void 
  5714 ;; Registers used:
  5715 ;;		wreg, status,2
  5716 ;; Tracked objects:
  5717 ;;		On entry : 0/0
  5718 ;;		On exit  : 0/0
  5719 ;;		Unchanged: 0/0
  5720 ;; Data sizes:     COMRAM   BANK0   BANK1   BANK2   BANK3   BANK4   BANK5   BANK6   BANK7   BANK8   BANK9  BANK10  BANK1
      +1  BANK12  BANK13  BANK14  BANK15
  5721 ;;      Params:         0       0       0       0       0       0       0       0       0       0       0       0       
      +0       0       0       0       0
  5722 ;;      Locals:         0       0       0       0       0       0       0       0       0       0       0       0       
      +0       0       0       0       0
  5723 ;;      Temps:          0       0       0       0       0       0       0       0       0       0       0       0       
      +0       0       0       0       0
  5724 ;;      Totals:         0       0       0       0       0       0       0       0       0       0       0       0       
      +0       0       0       0       0
  5725 ;;Total ram usage:        0 bytes
  5726 ;; Hardware stack levels used: 1
  5727 ;; Hardware stack levels required when called: 4
  5728 ;; This function calls:
  5729 ;;		Nothing
  5730 ;; This function is called by:
  5731 ;;		_SYSTEM_Initialize
  5732 ;; This function uses a non-reentrant model
  5733 ;;
  5734                           
  5735                           	psect	text30
  5736   002E88                     __ptext30:
  5737                           	callstack 0
  5738   002E88                     _FVR_Initialize:
  5739                           	callstack 25
  5740   002E88                     
  5741                           ;mcc_generated_files/fvr.c: 61:     FVRCON = 0x8A;
  5742   002E88  0E8A               	movlw	138
  5743   002E8A  013E               	movlb	62	; () banked
  5744   002E8C  6FC1               	movwf	193,b	;volatile
  5745   002E8E                     
  5746                           ; BSR set to: 62
  5747   002E8E  0012               	return		;funcret
  5748   002E90                     __end_of_FVR_Initialize:
  5749                           	callstack 0
  5750                           
  5751 ;; *************** function _ADCC_Initialize *****************
  5752 ;; Defined at:
  5753 ;;		line 62 in file "mcc_generated_files/adcc.c"
  5754 ;; Parameters:    Size  Location     Type
  5755 ;;		None
  5756 ;; Auto vars:     Size  Location     Type
  5757 ;;		None
  5758 ;; Return value:  Size  Location     Type
  5759 ;;                  1    wreg      void 
  5760 ;; Registers used:
  5761 ;;		wreg, status,2
  5762 ;; Tracked objects:
  5763 ;;		On entry : 0/0
  5764 ;;		On exit  : 0/0
  5765 ;;		Unchanged: 0/0
  5766 ;; Data sizes:     COMRAM   BANK0   BANK1   BANK2   BANK3   BANK4   BANK5   BANK6   BANK7   BANK8   BANK9  BANK10  BANK1
      +1  BANK12  BANK13  BANK14  BANK15
  5767 ;;      Params:         0       0       0       0       0       0       0       0       0       0       0       0       
      +0       0       0       0       0
  5768 ;;      Locals:         0       0       0       0       0       0       0       0       0       0       0       0       
      +0       0       0       0       0
  5769 ;;      Temps:          0       0       0       0       0       0       0       0       0       0       0       0       
      +0       0       0       0       0
  5770 ;;      Totals:         0       0       0       0       0       0       0       0       0       0       0       0       
      +0       0       0       0       0
  5771 ;;Total ram usage:        0 bytes
  5772 ;; Hardware stack levels used: 1
  5773 ;; Hardware stack levels required when called: 4
  5774 ;; This function calls:
  5775 ;;		Nothing
  5776 ;; This function is called by:
  5777 ;;		_SYSTEM_Initialize
  5778 ;; This function uses a non-reentrant model
  5779 ;;
  5780                           
  5781                           	psect	text31
  5782   002A98                     __ptext31:
  5783                           	callstack 0
  5784   002A98                     _ADCC_Initialize:
  5785                           	callstack 25
  5786   002A98                     
  5787                           ;mcc_generated_files/adcc.c: 66:     ADLTHL = 0x00;
  5788   002A98  0E00               	movlw	0
  5789   002A9A  013E               	movlb	62	; () banked
  5790   002A9C  6FDE               	movwf	222,b	;volatile
  5791                           
  5792                           ;mcc_generated_files/adcc.c: 68:     ADLTHH = 0x00;
  5793   002A9E  0E00               	movlw	0
  5794   002AA0  6FDF               	movwf	223,b	;volatile
  5795                           
  5796                           ;mcc_generated_files/adcc.c: 70:     ADUTHL = 0x00;
  5797   002AA2  0E00               	movlw	0
  5798   002AA4  6FE0               	movwf	224,b	;volatile
  5799                           
  5800                           ;mcc_generated_files/adcc.c: 72:     ADUTHH = 0x00;
  5801   002AA6  0E00               	movlw	0
  5802   002AA8  6FE1               	movwf	225,b	;volatile
  5803                           
  5804                           ;mcc_generated_files/adcc.c: 74:     ADSTPTL = 0x00;
  5805   002AAA  0E00               	movlw	0
  5806   002AAC  6FE4               	movwf	228,b	;volatile
  5807                           
  5808                           ;mcc_generated_files/adcc.c: 76:     ADSTPTH = 0x00;
  5809   002AAE  0E00               	movlw	0
  5810   002AB0  6FE5               	movwf	229,b	;volatile
  5811                           
  5812                           ;mcc_generated_files/adcc.c: 78:     ADACCU = 0x00;
  5813   002AB2  0E00               	movlw	0
  5814   002AB4  6FEA               	movwf	234,b	;volatile
  5815                           
  5816                           ;mcc_generated_files/adcc.c: 80:     ADRPT = 0x00;
  5817   002AB6  0E00               	movlw	0
  5818   002AB8  6FEC               	movwf	236,b	;volatile
  5819                           
  5820                           ;mcc_generated_files/adcc.c: 82:     ADPCH = 0x00;
  5821   002ABA  0E00               	movlw	0
  5822   002ABC  6FF1               	movwf	241,b	;volatile
  5823                           
  5824                           ;mcc_generated_files/adcc.c: 84:     ADACQL = 0x00;
  5825   002ABE  0E00               	movlw	0
  5826   002AC0  6FF3               	movwf	243,b	;volatile
  5827                           
  5828                           ;mcc_generated_files/adcc.c: 86:     ADACQH = 0x00;
  5829   002AC2  0E00               	movlw	0
  5830   002AC4  6FF4               	movwf	244,b	;volatile
  5831                           
  5832                           ;mcc_generated_files/adcc.c: 88:     ADCAP = 0x00;
  5833   002AC6  0E00               	movlw	0
  5834   002AC8  6FF5               	movwf	245,b	;volatile
  5835                           
  5836                           ;mcc_generated_files/adcc.c: 90:     ADPREL = 0x00;
  5837   002ACA  0E00               	movlw	0
  5838   002ACC  6FF6               	movwf	246,b	;volatile
  5839                           
  5840                           ;mcc_generated_files/adcc.c: 92:     ADPREH = 0x00;
  5841   002ACE  0E00               	movlw	0
  5842   002AD0  6FF7               	movwf	247,b	;volatile
  5843                           
  5844                           ;mcc_generated_files/adcc.c: 94:     ADCON1 = 0x01;
  5845   002AD2  0E01               	movlw	1
  5846   002AD4  6FF9               	movwf	249,b	;volatile
  5847                           
  5848                           ;mcc_generated_files/adcc.c: 96:     ADCON2 = 0x00;
  5849   002AD6  0E00               	movlw	0
  5850   002AD8  6FFA               	movwf	250,b	;volatile
  5851                           
  5852                           ;mcc_generated_files/adcc.c: 98:     ADCON3 = 0x00;
  5853   002ADA  0E00               	movlw	0
  5854   002ADC  6FFB               	movwf	251,b	;volatile
  5855                           
  5856                           ;mcc_generated_files/adcc.c: 100:     ADSTAT = 0x00;
  5857   002ADE  0E00               	movlw	0
  5858   002AE0  6FFC               	movwf	252,b	;volatile
  5859                           
  5860                           ;mcc_generated_files/adcc.c: 102:     ADREF = 0x03;
  5861   002AE2  0E03               	movlw	3
  5862   002AE4  6FFD               	movwf	253,b	;volatile
  5863                           
  5864                           ;mcc_generated_files/adcc.c: 104:     ADACT = 0x00;
  5865   002AE6  0E00               	movlw	0
  5866   002AE8  6FFE               	movwf	254,b	;volatile
  5867                           
  5868                           ;mcc_generated_files/adcc.c: 106:     ADCLK = 0x1F;
  5869   002AEA  0E1F               	movlw	31
  5870   002AEC  6FFF               	movwf	255,b	;volatile
  5871                           
  5872                           ;mcc_generated_files/adcc.c: 108:     ADCON0 = 0x84;
  5873   002AEE  0E84               	movlw	132
  5874   002AF0  6FF8               	movwf	248,b	;volatile
  5875   002AF2                     
  5876                           ; BSR set to: 62
  5877   002AF2  0012               	return		;funcret
  5878   002AF4                     __end_of_ADCC_Initialize:
  5879                           	callstack 0
  5880                           
  5881 ;; *************** function _SPI1_Open *****************
  5882 ;; Defined at:
  5883 ;;		line 79 in file "mcc_generated_files/spi1.c"
  5884 ;; Parameters:    Size  Location     Type
  5885 ;;  spi1UniqueCo    1    wreg     enum E358
  5886 ;; Auto vars:     Size  Location     Type
  5887 ;;  spi1UniqueCo    1   10[COMRAM] enum E358
  5888 ;; Return value:  Size  Location     Type
  5889 ;;                  1    wreg      _Bool 
  5890 ;; Registers used:
  5891 ;;		wreg, status,2, status,0, tblptrl, tblptrh, tblptru, prodl, prodh
  5892 ;; Tracked objects:
  5893 ;;		On entry : 0/0
  5894 ;;		On exit  : 0/0
  5895 ;;		Unchanged: 0/0
  5896 ;; Data sizes:     COMRAM   BANK0   BANK1   BANK2   BANK3   BANK4   BANK5   BANK6   BANK7   BANK8   BANK9  BANK10  BANK1
      +1  BANK12  BANK13  BANK14  BANK15
  5897 ;;      Params:         0       0       0       0       0       0       0       0       0       0       0       0       
      +0       0       0       0       0
  5898 ;;      Locals:         1       0       0       0       0       0       0       0       0       0       0       0       
      +0       0       0       0       0
  5899 ;;      Temps:          1       0       0       0       0       0       0       0       0       0       0       0       
      +0       0       0       0       0
  5900 ;;      Totals:         2       0       0       0       0       0       0       0       0       0       0       0       
      +0       0       0       0       0
  5901 ;;Total ram usage:        2 bytes
  5902 ;; Hardware stack levels used: 1
  5903 ;; Hardware stack levels required when called: 4
  5904 ;; This function calls:
  5905 ;;		Nothing
  5906 ;; This function is called by:
  5907 ;;		_main
  5908 ;; This function uses a non-reentrant model
  5909 ;;
  5910                           
  5911                           	psect	text32
  5912   002330                     __ptext32:
  5913                           	callstack 0
  5914   002330                     _SPI1_Open:
  5915                           	callstack 26
  5916                           
  5917                           ; BSR set to: 62
  5918                           ;incstack = 0
  5919                           ;SPI1_Open@spi1UniqueConfiguration stored from wreg
  5920   002330  6E0B               	movwf	SPI1_Open@spi1UniqueConfiguration^0,c
  5921   002332                     
  5922                           ;mcc_generated_files/spi1.c: 79: _Bool SPI1_Open(spi1_modes_t spi1UniqueConfiguration);m
      +                          cc_generated_files/spi1.c: 80: {;mcc_generated_files/spi1.c: 81:     if(!SPI1CON0bits.EN
      +                          )
  5923   002332  013D               	movlb	61	; () banked
  5924   002334  BF14               	btfsc	20,7,b	;volatile
  5925   002336  EF9F  F011         	goto	u2761
  5926   00233A  EFA1  F011         	goto	u2760
  5927   00233E                     u2761:
  5928   00233E  EF05  F012         	goto	l141
  5929   002342                     u2760:
  5930   002342                     
  5931                           ; BSR set to: 61
  5932                           ;mcc_generated_files/spi1.c: 82:     {;mcc_generated_files/spi1.c: 83:         SPI1CON0 
      +                          = spi1_configuration[spi1UniqueConfiguration].con0;
  5933   002342  500B               	movf	SPI1_Open@spi1UniqueConfiguration^0,w,c
  5934   002344  0D05               	mullw	5
  5935   002346  0E01               	movlw	low _spi1_configuration
  5936   002348  24F3               	addwf	243,w,c
  5937   00234A  6EF6               	movwf	tblptrl,c
  5938   00234C  0E10               	movlw	high _spi1_configuration
  5939   00234E  20F4               	addwfc	244,w,c
  5940   002350  6EF7               	movwf	tblptrh,c
  5941   002352                     	if	1	;There are 3 active tblptr bytes
  5942   002352  6AF8               	clrf	tblptru,c
  5943   002354  0E00               	movlw	low (__mediumconst shr (0+16))
  5944   002356  22F8               	addwfc	tblptru,f,c
  5945   002358                     	endif
  5946   002358  0008               	tblrd		*
  5947   00235A  006F FFD7 FD14     	movff	tablat,15636	;volatile
  5948                           
  5949                           ;mcc_generated_files/spi1.c: 84:         SPI1CON1 = spi1_configuration[spi1UniqueConfigu
      +                          ration].con1;
  5950   002360  500B               	movf	SPI1_Open@spi1UniqueConfiguration^0,w,c
  5951   002362  0D05               	mullw	5
  5952   002364  0E01               	movlw	1
  5953   002366  26F3               	addwf	243,f,c
  5954   002368  0E00               	movlw	0
  5955   00236A  22F4               	addwfc	244,f,c
  5956   00236C  0E01               	movlw	low _spi1_configuration
  5957   00236E  24F3               	addwf	243,w,c
  5958   002370  6EF6               	movwf	tblptrl,c
  5959   002372  0E10               	movlw	high _spi1_configuration
  5960   002374  20F4               	addwfc	244,w,c
  5961   002376  6EF7               	movwf	tblptrh,c
  5962   002378                     	if	1	;There are 3 active tblptr bytes
  5963   002378  6AF8               	clrf	tblptru,c
  5964   00237A  0E00               	movlw	low (__mediumconst shr (0+16))
  5965   00237C  22F8               	addwfc	tblptru,f,c
  5966   00237E                     	endif
  5967   00237E  0008               	tblrd		*
  5968   002380  006F FFD7 FD15     	movff	tablat,15637	;volatile
  5969                           
  5970                           ;mcc_generated_files/spi1.c: 85:         SPI1CON2 = spi1_configuration[spi1UniqueConfigu
      +                          ration].con2 | (0x1 | 0x2);
  5971   002386  500B               	movf	SPI1_Open@spi1UniqueConfiguration^0,w,c
  5972   002388  0D05               	mullw	5
  5973   00238A  0E02               	movlw	2
  5974   00238C  26F3               	addwf	243,f,c
  5975   00238E  0E00               	movlw	0
  5976   002390  22F4               	addwfc	244,f,c
  5977   002392  0E01               	movlw	low _spi1_configuration
  5978   002394  24F3               	addwf	243,w,c
  5979   002396  6EF6               	movwf	tblptrl,c
  5980   002398  0E10               	movlw	high _spi1_configuration
  5981   00239A  20F4               	addwfc	244,w,c
  5982   00239C  6EF7               	movwf	tblptrh,c
  5983   00239E                     	if	1	;There are 3 active tblptr bytes
  5984   00239E  6AF8               	clrf	tblptru,c
  5985   0023A0  0E00               	movlw	low (__mediumconst shr (0+16))
  5986   0023A2  22F8               	addwfc	tblptru,f,c
  5987   0023A4                     	endif
  5988   0023A4  0008               	tblrd		*
  5989   0023A6  50F5               	movf	tablat,w,c
  5990   0023A8  0903               	iorlw	3
  5991   0023AA  6F16               	movwf	22,b	;volatile
  5992                           
  5993                           ;mcc_generated_files/spi1.c: 86:         SPI1BAUD = spi1_configuration[spi1UniqueConfigu
      +                          ration].baud;
  5994   0023AC  500B               	movf	SPI1_Open@spi1UniqueConfiguration^0,w,c
  5995   0023AE  0D05               	mullw	5
  5996   0023B0  0E03               	movlw	3
  5997   0023B2  26F3               	addwf	243,f,c
  5998   0023B4  0E00               	movlw	0
  5999   0023B6  22F4               	addwfc	244,f,c
  6000   0023B8  0E01               	movlw	low _spi1_configuration
  6001   0023BA  24F3               	addwf	243,w,c
  6002   0023BC  6EF6               	movwf	tblptrl,c
  6003   0023BE  0E10               	movlw	high _spi1_configuration
  6004   0023C0  20F4               	addwfc	244,w,c
  6005   0023C2  6EF7               	movwf	tblptrh,c
  6006   0023C4                     	if	1	;There are 3 active tblptr bytes
  6007   0023C4  6AF8               	clrf	tblptru,c
  6008   0023C6  0E00               	movlw	low (__mediumconst shr (0+16))
  6009   0023C8  22F8               	addwfc	tblptru,f,c
  6010   0023CA                     	endif
  6011   0023CA  0008               	tblrd		*
  6012   0023CC  006F FFD7 FD19     	movff	tablat,15641	;volatile
  6013                           
  6014                           ;mcc_generated_files/spi1.c: 87:         TRISCbits.TRISC3 = spi1_configuration[spi1Uniqu
      +                          eConfiguration].operation;
  6015   0023D2  500B               	movf	SPI1_Open@spi1UniqueConfiguration^0,w,c
  6016   0023D4  0D05               	mullw	5
  6017   0023D6  0E04               	movlw	4
  6018   0023D8  26F3               	addwf	243,f,c
  6019   0023DA  0E00               	movlw	0
  6020   0023DC  22F4               	addwfc	244,f,c
  6021   0023DE  0E01               	movlw	low _spi1_configuration
  6022   0023E0  24F3               	addwf	243,w,c
  6023   0023E2  6EF6               	movwf	tblptrl,c
  6024   0023E4  0E10               	movlw	high _spi1_configuration
  6025   0023E6  20F4               	addwfc	244,w,c
  6026   0023E8  6EF7               	movwf	tblptrh,c
  6027   0023EA                     	if	1	;There are 3 active tblptr bytes
  6028   0023EA  6AF8               	clrf	tblptru,c
  6029   0023EC  0E00               	movlw	low (__mediumconst shr (0+16))
  6030   0023EE  22F8               	addwfc	tblptru,f,c
  6031   0023F0                     	endif
  6032   0023F0  0008               	tblrd		*
  6033   0023F2  006F FFD4  F00A    	movff	tablat,??_SPI1_Open
  6034   0023F8  460A               	rlncf	??_SPI1_Open^0,f,c
  6035   0023FA  460A               	rlncf	??_SPI1_Open^0,f,c
  6036   0023FC  460A               	rlncf	??_SPI1_Open^0,f,c
  6037   0023FE  50C4               	movf	196,w,c	;volatile
  6038   002400  180A               	xorwf	??_SPI1_Open^0,w,c
  6039   002402  0BF7               	andlw	-9
  6040   002404  180A               	xorwf	??_SPI1_Open^0,w,c
  6041   002406  6EC4               	movwf	196,c	;volatile
  6042   002408                     
  6043                           ; BSR set to: 61
  6044                           ;mcc_generated_files/spi1.c: 88:         SPI1CON0bits.EN = 1;
  6045   002408  8F14               	bsf	20,7,b	;volatile
  6046   00240A                     l141:
  6047                           
  6048                           ; BSR set to: 61
  6049   00240A  0012               	return		;funcret
  6050   00240C                     __end_of_SPI1_Open:
  6051                           	callstack 0
  6052                           
  6053 ;; *************** function _SPI1_ExchangeByte *****************
  6054 ;; Defined at:
  6055 ;;		line 99 in file "mcc_generated_files/spi1.c"
  6056 ;; Parameters:    Size  Location     Type
  6057 ;;  data            1    wreg     unsigned char 
  6058 ;; Auto vars:     Size  Location     Type
  6059 ;;  data            1    9[COMRAM] unsigned char 
  6060 ;; Return value:  Size  Location     Type
  6061 ;;                  1    wreg      unsigned char 
  6062 ;; Registers used:
  6063 ;;		wreg, status,2
  6064 ;; Tracked objects:
  6065 ;;		On entry : 0/0
  6066 ;;		On exit  : 0/0
  6067 ;;		Unchanged: 0/0
  6068 ;; Data sizes:     COMRAM   BANK0   BANK1   BANK2   BANK3   BANK4   BANK5   BANK6   BANK7   BANK8   BANK9  BANK10  BANK1
      +1  BANK12  BANK13  BANK14  BANK15
  6069 ;;      Params:         0       0       0       0       0       0       0       0       0       0       0       0       
      +0       0       0       0       0
  6070 ;;      Locals:         1       0       0       0       0       0       0       0       0       0       0       0       
      +0       0       0       0       0
  6071 ;;      Temps:          0       0       0       0       0       0       0       0       0       0       0       0       
      +0       0       0       0       0
  6072 ;;      Totals:         1       0       0       0       0       0       0       0       0       0       0       0       
      +0       0       0       0       0
  6073 ;;Total ram usage:        1 bytes
  6074 ;; Hardware stack levels used: 1
  6075 ;; Hardware stack levels required when called: 4
  6076 ;; This function calls:
  6077 ;;		Nothing
  6078 ;; This function is called by:
  6079 ;;		_main
  6080 ;;		_SPI1_WriteBlock
  6081 ;;		_SPI1_ReadBlock
  6082 ;; This function uses a non-reentrant model
  6083 ;;
  6084                           
  6085                           	psect	text33
  6086   002DB8                     __ptext33:
  6087                           	callstack 0
  6088   002DB8                     _SPI1_ExchangeByte:
  6089                           	callstack 26
  6090                           
  6091                           ; BSR set to: 61
  6092                           ;incstack = 0
  6093                           ;SPI1_ExchangeByte@data stored from wreg
  6094   002DB8  6E0A               	movwf	SPI1_ExchangeByte@data^0,c
  6095   002DBA                     
  6096                           ;mcc_generated_files/spi1.c: 99: uint8_t SPI1_ExchangeByte(uint8_t data);mcc_generated_f
      +                          iles/spi1.c: 100: {;mcc_generated_files/spi1.c: 101:     SPI1TCNTL = 1;
  6097   002DBA  0E01               	movlw	1
  6098   002DBC  013D               	movlb	61	; () banked
  6099   002DBE  6F12               	movwf	18,b	;volatile
  6100   002DC0                     
  6101                           ; BSR set to: 61
  6102                           ;mcc_generated_files/spi1.c: 102:     SPI1TXB = data;
  6103   002DC0  0060  F02B  FD11   	movff	SPI1_ExchangeByte@data,15633	;volatile
  6104   002DC6                     l147:
  6105   002DC6  0139               	movlb	57	; () banked
  6106   002DC8  A9A2               	btfss	162,4,b	;volatile
  6107   002DCA  EFE9  F016         	goto	u2771
  6108   002DCE  EFEB  F016         	goto	u2770
  6109   002DD2                     u2771:
  6110   002DD2  EFE3  F016         	goto	l147
  6111   002DD6                     u2770:
  6112   002DD6                     
  6113                           ; BSR set to: 57
  6114                           ;mcc_generated_files/spi1.c: 104:     return SPI1RXB;
  6115   002DD6  013D               	movlb	61	; () banked
  6116   002DD8  5110               	movf	16,w,b	;volatile
  6117   002DDA                     
  6118                           ; BSR set to: 61
  6119   002DDA  0012               	return		;funcret
  6120   002DDC                     __end_of_SPI1_ExchangeByte:
  6121                           	callstack 0
  6122                           
  6123 ;; *************** function _InitializeFIFO *****************
  6124 ;; Defined at:
  6125 ;;		line 671 in file "main.c"
  6126 ;; Parameters:    Size  Location     Type
  6127 ;;  targetFIFO      2    9[COMRAM] PTR struct FIFO_t
  6128 ;;		 -> struct_eusart1(206), 
  6129 ;; Auto vars:     Size  Location     Type
  6130 ;;		None
  6131 ;; Return value:  Size  Location     Type
  6132 ;;                  1    wreg      void 
  6133 ;; Registers used:
  6134 ;;		wreg, fsr2l, fsr2h, status,2, status,0
  6135 ;; Tracked objects:
  6136 ;;		On entry : 0/0
  6137 ;;		On exit  : 0/0
  6138 ;;		Unchanged: 0/0
  6139 ;; Data sizes:     COMRAM   BANK0   BANK1   BANK2   BANK3   BANK4   BANK5   BANK6   BANK7   BANK8   BANK9  BANK10  BANK1
      +1  BANK12  BANK13  BANK14  BANK15
  6140 ;;      Params:         2       0       0       0       0       0       0       0       0       0       0       0       
      +0       0       0       0       0
  6141 ;;      Locals:         0       0       0       0       0       0       0       0       0       0       0       0       
      +0       0       0       0       0
  6142 ;;      Temps:          0       0       0       0       0       0       0       0       0       0       0       0       
      +0       0       0       0       0
  6143 ;;      Totals:         2       0       0       0       0       0       0       0       0       0       0       0       
      +0       0       0       0       0
  6144 ;;Total ram usage:        2 bytes
  6145 ;; Hardware stack levels used: 1
  6146 ;; Hardware stack levels required when called: 4
  6147 ;; This function calls:
  6148 ;;		Nothing
  6149 ;; This function is called by:
  6150 ;;		_main
  6151 ;; This function uses a non-reentrant model
  6152 ;;
  6153                           
  6154                           	psect	text34
  6155   002B98                     __ptext34:
  6156                           	callstack 0
  6157   002B98                     _InitializeFIFO:
  6158                           	callstack 26
  6159   002B98                     
  6160                           ;main.c: 672:     targetFIFO->writeBuffer = &((targetFIFO->buffer[0]));
  6161   002B98  EE20 F0C8          	lfsr	2,200
  6162   002B9C  500A               	movf	InitializeFIFO@targetFIFO^0,w,c
  6163   002B9E  26D9               	addwf	fsr2l,f,c
  6164   002BA0  500B               	movf	(InitializeFIFO@targetFIFO+1)^0,w,c
  6165   002BA2  22DA               	addwfc	fsr2h,f,c
  6166   002BA4  0060  F02B  FFDE   	movff	InitializeFIFO@targetFIFO,postinc2
  6167   002BAA  0060  F02F  FFDD   	movff	InitializeFIFO@targetFIFO+1,postdec2
  6168                           
  6169                           ;main.c: 673:     targetFIFO->readBuffer = &((targetFIFO->buffer[0]));
  6170   002BB0  EE20 F0CA          	lfsr	2,202
  6171   002BB4  500A               	movf	InitializeFIFO@targetFIFO^0,w,c
  6172   002BB6  26D9               	addwf	fsr2l,f,c
  6173   002BB8  500B               	movf	(InitializeFIFO@targetFIFO+1)^0,w,c
  6174   002BBA  22DA               	addwfc	fsr2h,f,c
  6175   002BBC  0060  F02B  FFDE   	movff	InitializeFIFO@targetFIFO,postinc2
  6176   002BC2  0060  F02F  FFDD   	movff	InitializeFIFO@targetFIFO+1,postdec2
  6177                           
  6178                           ;main.c: 674:     targetFIFO->newData = 0;
  6179   002BC8  EE20 F0CC          	lfsr	2,204
  6180   002BCC  500A               	movf	InitializeFIFO@targetFIFO^0,w,c
  6181   002BCE  26D9               	addwf	fsr2l,f,c
  6182   002BD0  500B               	movf	(InitializeFIFO@targetFIFO+1)^0,w,c
  6183   002BD2  22DA               	addwfc	fsr2h,f,c
  6184   002BD4  6ADF               	clrf	indf2,c
  6185                           
  6186                           ;main.c: 675:     targetFIFO->statusFIFO = 1;
  6187   002BD6  EE20 F0CD          	lfsr	2,205
  6188   002BDA  500A               	movf	InitializeFIFO@targetFIFO^0,w,c
  6189   002BDC  26D9               	addwf	fsr2l,f,c
  6190   002BDE  500B               	movf	(InitializeFIFO@targetFIFO+1)^0,w,c
  6191   002BE0  22DA               	addwfc	fsr2h,f,c
  6192   002BE2  0E01               	movlw	1
  6193   002BE4  6EDF               	movwf	indf2,c
  6194   002BE6  0012               	return		;funcret
  6195   002BE8                     __end_of_InitializeFIFO:
  6196                           	callstack 0
  6197                           
  6198 ;; *************** function _FIR_pointer_sim *****************
  6199 ;; Defined at:
  6200 ;;		line 369 in file "main.c"
  6201 ;; Parameters:    Size  Location     Type
  6202 ;;  in              2   21[COMRAM] PTR short 
  6203 ;;		 -> main@in_values_1(32), main@in_values_0(32), 
  6204 ;;  num             2   23[COMRAM] PTR short 
  6205 ;;		 -> FIR_num_sim(16), 
  6206 ;;  size_in         2   25[COMRAM] int 
  6207 ;;  size_num        2   27[COMRAM] int 
  6208 ;;  flag            1   29[COMRAM] enum E16821
  6209 ;; Auto vars:     Size  Location     Type
  6210 ;;  i               2    4[BANK0 ] int 
  6211 ;;  resp            4    0[BANK0 ] long 
  6212 ;; Return value:  Size  Location     Type
  6213 ;;                  2   21[COMRAM] short 
  6214 ;; Registers used:
  6215 ;;		wreg, fsr2l, fsr2h, status,2, status,0, cstack
  6216 ;; Tracked objects:
  6217 ;;		On entry : 0/0
  6218 ;;		On exit  : 0/0
  6219 ;;		Unchanged: 0/0
  6220 ;; Data sizes:     COMRAM   BANK0   BANK1   BANK2   BANK3   BANK4   BANK5   BANK6   BANK7   BANK8   BANK9  BANK10  BANK1
      +1  BANK12  BANK13  BANK14  BANK15
  6221 ;;      Params:         9       0       0       0       0       0       0       0       0       0       0       0       
      +0       0       0       0       0
  6222 ;;      Locals:         0       6       0       0       0       0       0       0       0       0       0       0       
      +0       0       0       0       0
  6223 ;;      Temps:         20       0       0       0       0       0       0       0       0       0       0       0       
      +0       0       0       0       0
  6224 ;;      Totals:        29       6       0       0       0       0       0       0       0       0       0       0       
      +0       0       0       0       0
  6225 ;;Total ram usage:       35 bytes
  6226 ;; Hardware stack levels used: 1
  6227 ;; Hardware stack levels required when called: 5
  6228 ;; This function calls:
  6229 ;;		___lmul
  6230 ;; This function is called by:
  6231 ;;		_main
  6232 ;; This function uses a non-reentrant model
  6233 ;;
  6234                           
  6235                           	psect	text35
  6236   001C1E                     __ptext35:
  6237                           	callstack 0
  6238   001C1E                     _FIR_pointer_sim:
  6239                           	callstack 25
  6240   001C1E                     
  6241                           ;main.c: 369: int16_t FIR_pointer_sim(int16_t *in, int16_t *num, int size_in, int size_n
      +                          um, FLAG_T flag);main.c: 370: {;main.c: 371:     int32_t resp = 0;
  6242   001C1E  0E00               	movlw	0
  6243   001C20  0100               	movlb	0	; () banked
  6244   001C22  6FAD               	movwf	FIR_pointer_sim@resp& (0+255),b
  6245   001C24  0E00               	movlw	0
  6246   001C26  6FAE               	movwf	(FIR_pointer_sim@resp+1)& (0+255),b
  6247   001C28  0E00               	movlw	0
  6248   001C2A  6FAF               	movwf	(FIR_pointer_sim@resp+2)& (0+255),b
  6249   001C2C  0E00               	movlw	0
  6250   001C2E  6FB0               	movwf	(FIR_pointer_sim@resp+3)& (0+255),b
  6251                           
  6252                           ;main.c: 373:     for(int i = 0; i < size_num; i++)
  6253   001C30  0E00               	movlw	0
  6254   001C32  6FB2               	movwf	(FIR_pointer_sim@i+1)& (0+255),b
  6255   001C34  0E00               	movlw	0
  6256   001C36  6FB1               	movwf	FIR_pointer_sim@i& (0+255),b
  6257   001C38  EF92  F00E         	goto	l4341
  6258   001C3C                     l4337:
  6259                           
  6260                           ; BSR set to: 0
  6261                           ;main.c: 374:     {;main.c: 376:         resp += (((int32_t)(*(in+i)))+((int32_t)(*(in+s
      +                          ize_in-i-1))))*((int32_t)(*(num+i)));
  6262   001C3C  C0B1  F01F         	movff	FIR_pointer_sim@i,??_FIR_pointer_sim
  6263   001C40  C0B2  F020         	movff	FIR_pointer_sim@i+1,??_FIR_pointer_sim+1
  6264   001C44  90D8               	bcf	status,0,c
  6265   001C46  361F               	rlcf	??_FIR_pointer_sim^0,f,c
  6266   001C48  3620               	rlcf	(??_FIR_pointer_sim+1)^0,f,c
  6267   001C4A  C01A  F021         	movff	FIR_pointer_sim@size_in,??_FIR_pointer_sim+2
  6268   001C4E  C01B  F022         	movff	FIR_pointer_sim@size_in+1,??_FIR_pointer_sim+3
  6269   001C52  90D8               	bcf	status,0,c
  6270   001C54  3621               	rlcf	(??_FIR_pointer_sim+2)^0,f,c
  6271   001C56  3622               	rlcf	(??_FIR_pointer_sim+3)^0,f,c
  6272   001C58  5021               	movf	(??_FIR_pointer_sim+2)^0,w,c
  6273   001C5A  2416               	addwf	FIR_pointer_sim@in^0,w,c
  6274   001C5C  6E23               	movwf	(??_FIR_pointer_sim+4)^0,c
  6275   001C5E  5022               	movf	(??_FIR_pointer_sim+3)^0,w,c
  6276   001C60  2017               	addwfc	(FIR_pointer_sim@in+1)^0,w,c
  6277   001C62  6E24               	movwf	(??_FIR_pointer_sim+5)^0,c
  6278   001C64  501F               	movf	??_FIR_pointer_sim^0,w,c
  6279   001C66  5C23               	subwf	(??_FIR_pointer_sim+4)^0,w,c
  6280   001C68  6E25               	movwf	(??_FIR_pointer_sim+6)^0,c
  6281   001C6A  5020               	movf	(??_FIR_pointer_sim+1)^0,w,c
  6282   001C6C  5824               	subwfb	(??_FIR_pointer_sim+5)^0,w,c
  6283   001C6E  6E26               	movwf	(??_FIR_pointer_sim+7)^0,c
  6284   001C70  0EFE               	movlw	254
  6285   001C72  2425               	addwf	(??_FIR_pointer_sim+6)^0,w,c
  6286   001C74  6ED9               	movwf	fsr2l,c
  6287   001C76  0EFF               	movlw	255
  6288   001C78  2026               	addwfc	(??_FIR_pointer_sim+7)^0,w,c
  6289   001C7A  6EDA               	movwf	fsr2h,c
  6290   001C7C  006F FF78  F027    	movff	postinc2,??_FIR_pointer_sim+8
  6291   001C82  006F FF74  F028    	movff	postdec2,??_FIR_pointer_sim+9
  6292   001C88  C027  F029         	movff	??_FIR_pointer_sim+8,??_FIR_pointer_sim+10
  6293   001C8C  C028  F02A         	movff	??_FIR_pointer_sim+9,??_FIR_pointer_sim+11
  6294   001C90  0E00               	movlw	0
  6295   001C92  BE2A               	btfsc	(??_FIR_pointer_sim+11)^0,7,c
  6296   001C94  0EFF               	movlw	255
  6297   001C96  6E2B               	movwf	(??_FIR_pointer_sim+12)^0,c
  6298   001C98  6E2C               	movwf	(??_FIR_pointer_sim+13)^0,c
  6299   001C9A  90D8               	bcf	status,0,c
  6300   001C9C  35B1               	rlcf	FIR_pointer_sim@i& (0+255),w,b
  6301   001C9E  6ED9               	movwf	fsr2l,c
  6302   001CA0  35B2               	rlcf	(FIR_pointer_sim@i+1)& (0+255),w,b
  6303   001CA2  6EDA               	movwf	fsr2h,c
  6304   001CA4  5016               	movf	FIR_pointer_sim@in^0,w,c
  6305   001CA6  26D9               	addwf	fsr2l,f,c
  6306   001CA8  5017               	movf	(FIR_pointer_sim@in+1)^0,w,c
  6307   001CAA  22DA               	addwfc	fsr2h,f,c
  6308   001CAC  006F FF78  F02D    	movff	postinc2,??_FIR_pointer_sim+14
  6309   001CB2  006F FF74  F02E    	movff	postdec2,??_FIR_pointer_sim+15
  6310   001CB8  C02D  F02F         	movff	??_FIR_pointer_sim+14,??_FIR_pointer_sim+16
  6311   001CBC  C02E  F030         	movff	??_FIR_pointer_sim+15,??_FIR_pointer_sim+17
  6312   001CC0  0E00               	movlw	0
  6313   001CC2  BE30               	btfsc	(??_FIR_pointer_sim+17)^0,7,c
  6314   001CC4  0EFF               	movlw	255
  6315   001CC6  6E31               	movwf	(??_FIR_pointer_sim+18)^0,c
  6316   001CC8  6E32               	movwf	(??_FIR_pointer_sim+19)^0,c
  6317   001CCA  5029               	movf	(??_FIR_pointer_sim+10)^0,w,c
  6318   001CCC  242F               	addwf	(??_FIR_pointer_sim+16)^0,w,c
  6319   001CCE  6E0A               	movwf	___lmul@multiplier^0,c
  6320   001CD0  502A               	movf	(??_FIR_pointer_sim+11)^0,w,c
  6321   001CD2  2030               	addwfc	(??_FIR_pointer_sim+17)^0,w,c
  6322   001CD4  6E0B               	movwf	(___lmul@multiplier+1)^0,c
  6323   001CD6  502B               	movf	(??_FIR_pointer_sim+12)^0,w,c
  6324   001CD8  2031               	addwfc	(??_FIR_pointer_sim+18)^0,w,c
  6325   001CDA  6E0C               	movwf	(___lmul@multiplier+2)^0,c
  6326   001CDC  502C               	movf	(??_FIR_pointer_sim+13)^0,w,c
  6327   001CDE  2032               	addwfc	(??_FIR_pointer_sim+19)^0,w,c
  6328   001CE0  6E0D               	movwf	(___lmul@multiplier+3)^0,c
  6329   001CE2  90D8               	bcf	status,0,c
  6330   001CE4  35B1               	rlcf	FIR_pointer_sim@i& (0+255),w,b
  6331   001CE6  6ED9               	movwf	fsr2l,c
  6332   001CE8  35B2               	rlcf	(FIR_pointer_sim@i+1)& (0+255),w,b
  6333   001CEA  6EDA               	movwf	fsr2h,c
  6334   001CEC  5018               	movf	FIR_pointer_sim@num^0,w,c
  6335   001CEE  26D9               	addwf	fsr2l,f,c
  6336   001CF0  5019               	movf	(FIR_pointer_sim@num+1)^0,w,c
  6337   001CF2  22DA               	addwfc	fsr2h,f,c
  6338   001CF4  006F FF78  F00E    	movff	postinc2,___lmul@multiplicand
  6339   001CFA  006F FF74  F00F    	movff	postdec2,___lmul@multiplicand+1
  6340   001D00  0E00               	movlw	0
  6341   001D02  BE0F               	btfsc	(___lmul@multiplicand+1)^0,7,c
  6342   001D04  0EFF               	movlw	-1
  6343   001D06  6E10               	movwf	(___lmul@multiplicand+2)^0,c
  6344   001D08  6E11               	movwf	(___lmul@multiplicand+3)^0,c
  6345   001D0A  ECB9  F014         	call	___lmul	;wreg free
  6346   001D0E  500A               	movf	?___lmul^0,w,c
  6347   001D10  0100               	movlb	0	; () banked
  6348   001D12  27AD               	addwf	FIR_pointer_sim@resp& (0+255),f,b
  6349   001D14  500B               	movf	(?___lmul+1)^0,w,c
  6350   001D16  23AE               	addwfc	(FIR_pointer_sim@resp+1)& (0+255),f,b
  6351   001D18  500C               	movf	(?___lmul+2)^0,w,c
  6352   001D1A  23AF               	addwfc	(FIR_pointer_sim@resp+2)& (0+255),f,b
  6353   001D1C  500D               	movf	(?___lmul+3)^0,w,c
  6354   001D1E  23B0               	addwfc	(FIR_pointer_sim@resp+3)& (0+255),f,b
  6355   001D20                     
  6356                           ; BSR set to: 0
  6357                           ;main.c: 377:     }
  6358   001D20  4BB1               	infsnz	FIR_pointer_sim@i& (0+255),f,b
  6359   001D22  2BB2               	incf	(FIR_pointer_sim@i+1)& (0+255),f,b
  6360   001D24                     l4341:
  6361                           
  6362                           ; BSR set to: 0
  6363   001D24  501C               	movf	FIR_pointer_sim@size_num^0,w,c
  6364   001D26  5DB1               	subwf	FIR_pointer_sim@i& (0+255),w,b
  6365   001D28  51B2               	movf	(FIR_pointer_sim@i+1)& (0+255),w,b
  6366   001D2A  0A80               	xorlw	128
  6367   001D2C  6E1F               	movwf	??_FIR_pointer_sim^0,c
  6368   001D2E  501D               	movf	(FIR_pointer_sim@size_num+1)^0,w,c
  6369   001D30  0A80               	xorlw	128
  6370   001D32  581F               	subwfb	??_FIR_pointer_sim^0,w,c
  6371   001D34  A0D8               	btfss	status,0,c
  6372   001D36  EF9F  F00E         	goto	u2811
  6373   001D3A  EFA1  F00E         	goto	u2810
  6374   001D3E                     u2811:
  6375   001D3E  EF1E  F00E         	goto	l4337
  6376   001D42                     u2810:
  6377   001D42                     
  6378                           ; BSR set to: 0
  6379                           ;main.c: 379:     if(flag == IMPAR)
  6380   001D42  041E               	decf	FIR_pointer_sim@flag^0,w,c
  6381   001D44  A4D8               	btfss	status,2,c
  6382   001D46  EFA7  F00E         	goto	u2821
  6383   001D4A  EFA9  F00E         	goto	u2820
  6384   001D4E                     u2821:
  6385   001D4E  EFF0  F00E         	goto	l4347
  6386   001D52                     u2820:
  6387   001D52                     
  6388                           ; BSR set to: 0
  6389                           ;main.c: 380:     {;main.c: 383:         resp -= ((int32_t)(*(in+size_num-1)))*((int32_t
      +                          )(*(num+size_num-1)));
  6390   001D52  C01C  F01F         	movff	FIR_pointer_sim@size_num,??_FIR_pointer_sim
  6391   001D56  C01D  F020         	movff	FIR_pointer_sim@size_num+1,??_FIR_pointer_sim+1
  6392   001D5A  90D8               	bcf	status,0,c
  6393   001D5C  361F               	rlcf	??_FIR_pointer_sim^0,f,c
  6394   001D5E  3620               	rlcf	(??_FIR_pointer_sim+1)^0,f,c
  6395   001D60  501F               	movf	??_FIR_pointer_sim^0,w,c
  6396   001D62  2416               	addwf	FIR_pointer_sim@in^0,w,c
  6397   001D64  6E21               	movwf	(??_FIR_pointer_sim+2)^0,c
  6398   001D66  5020               	movf	(??_FIR_pointer_sim+1)^0,w,c
  6399   001D68  2017               	addwfc	(FIR_pointer_sim@in+1)^0,w,c
  6400   001D6A  6E22               	movwf	(??_FIR_pointer_sim+3)^0,c
  6401   001D6C  0EFE               	movlw	254
  6402   001D6E  2421               	addwf	(??_FIR_pointer_sim+2)^0,w,c
  6403   001D70  6ED9               	movwf	fsr2l,c
  6404   001D72  0EFF               	movlw	255
  6405   001D74  2022               	addwfc	(??_FIR_pointer_sim+3)^0,w,c
  6406   001D76  6EDA               	movwf	fsr2h,c
  6407   001D78  006F FF78  F00A    	movff	postinc2,___lmul@multiplier
  6408   001D7E  006F FF74  F00B    	movff	postdec2,___lmul@multiplier+1
  6409   001D84  0E00               	movlw	0
  6410   001D86  BE0B               	btfsc	(___lmul@multiplier+1)^0,7,c
  6411   001D88  0EFF               	movlw	-1
  6412   001D8A  6E0C               	movwf	(___lmul@multiplier+2)^0,c
  6413   001D8C  6E0D               	movwf	(___lmul@multiplier+3)^0,c
  6414   001D8E  C01C  F023         	movff	FIR_pointer_sim@size_num,??_FIR_pointer_sim+4
  6415   001D92  C01D  F024         	movff	FIR_pointer_sim@size_num+1,??_FIR_pointer_sim+5
  6416   001D96  90D8               	bcf	status,0,c
  6417   001D98  3623               	rlcf	(??_FIR_pointer_sim+4)^0,f,c
  6418   001D9A  3624               	rlcf	(??_FIR_pointer_sim+5)^0,f,c
  6419   001D9C  5023               	movf	(??_FIR_pointer_sim+4)^0,w,c
  6420   001D9E  2418               	addwf	FIR_pointer_sim@num^0,w,c
  6421   001DA0  6E25               	movwf	(??_FIR_pointer_sim+6)^0,c
  6422   001DA2  5024               	movf	(??_FIR_pointer_sim+5)^0,w,c
  6423   001DA4  2019               	addwfc	(FIR_pointer_sim@num+1)^0,w,c
  6424   001DA6  6E26               	movwf	(??_FIR_pointer_sim+7)^0,c
  6425   001DA8  0EFE               	movlw	254
  6426   001DAA  2425               	addwf	(??_FIR_pointer_sim+6)^0,w,c
  6427   001DAC  6ED9               	movwf	fsr2l,c
  6428   001DAE  0EFF               	movlw	255
  6429   001DB0  2026               	addwfc	(??_FIR_pointer_sim+7)^0,w,c
  6430   001DB2  6EDA               	movwf	fsr2h,c
  6431   001DB4  006F FF78  F00E    	movff	postinc2,___lmul@multiplicand
  6432   001DBA  006F FF74  F00F    	movff	postdec2,___lmul@multiplicand+1
  6433   001DC0  0E00               	movlw	0
  6434   001DC2  BE0F               	btfsc	(___lmul@multiplicand+1)^0,7,c
  6435   001DC4  0EFF               	movlw	-1
  6436   001DC6  6E10               	movwf	(___lmul@multiplicand+2)^0,c
  6437   001DC8  6E11               	movwf	(___lmul@multiplicand+3)^0,c
  6438   001DCA  ECB9  F014         	call	___lmul	;wreg free
  6439   001DCE  500A               	movf	?___lmul^0,w,c
  6440   001DD0  0100               	movlb	0	; () banked
  6441   001DD2  5FAD               	subwf	FIR_pointer_sim@resp& (0+255),f,b
  6442   001DD4  500B               	movf	(?___lmul+1)^0,w,c
  6443   001DD6  5BAE               	subwfb	(FIR_pointer_sim@resp+1)& (0+255),f,b
  6444   001DD8  500C               	movf	(?___lmul+2)^0,w,c
  6445   001DDA  5BAF               	subwfb	(FIR_pointer_sim@resp+2)& (0+255),f,b
  6446   001DDC  500D               	movf	(?___lmul+3)^0,w,c
  6447   001DDE  5BB0               	subwfb	(FIR_pointer_sim@resp+3)& (0+255),f,b
  6448   001DE0                     l4347:
  6449                           
  6450                           ; BSR set to: 0
  6451                           ;main.c: 386:     return ((int16_t)(resp>>16));
  6452   001DE0  C0AF  F016         	movff	FIR_pointer_sim@resp+2,?_FIR_pointer_sim
  6453   001DE4  C0B0  F017         	movff	FIR_pointer_sim@resp+3,?_FIR_pointer_sim+1
  6454   001DE8                     
  6455                           ; BSR set to: 0
  6456   001DE8  0012               	return		;funcret
  6457   001DEA                     __end_of_FIR_pointer_sim:
  6458                           	callstack 0
  6459                           
  6460 ;; *************** function ___lmul *****************
  6461 ;; Defined at:
  6462 ;;		line 15 in file "C:\Program Files\Microchip\xc8\v2.41\pic\sources\c99\common\Umul32.c"
  6463 ;; Parameters:    Size  Location     Type
  6464 ;;  multiplier      4    9[COMRAM] unsigned long 
  6465 ;;  multiplicand    4   13[COMRAM] unsigned long 
  6466 ;; Auto vars:     Size  Location     Type
  6467 ;;  product         4   17[COMRAM] unsigned long 
  6468 ;; Return value:  Size  Location     Type
  6469 ;;                  4    9[COMRAM] unsigned long 
  6470 ;; Registers used:
  6471 ;;		wreg, status,2, status,0
  6472 ;; Tracked objects:
  6473 ;;		On entry : 0/0
  6474 ;;		On exit  : 0/0
  6475 ;;		Unchanged: 0/0
  6476 ;; Data sizes:     COMRAM   BANK0   BANK1   BANK2   BANK3   BANK4   BANK5   BANK6   BANK7   BANK8   BANK9  BANK10  BANK1
      +1  BANK12  BANK13  BANK14  BANK15
  6477 ;;      Params:         8       0       0       0       0       0       0       0       0       0       0       0       
      +0       0       0       0       0
  6478 ;;      Locals:         4       0       0       0       0       0       0       0       0       0       0       0       
      +0       0       0       0       0
  6479 ;;      Temps:          0       0       0       0       0       0       0       0       0       0       0       0       
      +0       0       0       0       0
  6480 ;;      Totals:        12       0       0       0       0       0       0       0       0       0       0       0       
      +0       0       0       0       0
  6481 ;;Total ram usage:       12 bytes
  6482 ;; Hardware stack levels used: 1
  6483 ;; Hardware stack levels required when called: 4
  6484 ;; This function calls:
  6485 ;;		Nothing
  6486 ;; This function is called by:
  6487 ;;		_FIR_pointer_sim
  6488 ;; This function uses a non-reentrant model
  6489 ;;
  6490                           
  6491                           	psect	text36
  6492   002972                     __ptext36:
  6493                           	callstack 0
  6494   002972                     ___lmul:
  6495                           	callstack 25
  6496   002972  0E00               	movlw	0
  6497   002974  6E12               	movwf	___lmul@product^0,c
  6498   002976  0E00               	movlw	0
  6499   002978  6E13               	movwf	(___lmul@product+1)^0,c
  6500   00297A  0E00               	movlw	0
  6501   00297C  6E14               	movwf	(___lmul@product+2)^0,c
  6502   00297E  0E00               	movlw	0
  6503   002980  6E15               	movwf	(___lmul@product+3)^0,c
  6504   002982                     l4261:
  6505   002982  A00A               	btfss	___lmul@multiplier^0,0,c
  6506   002984  EFC6  F014         	goto	u2741
  6507   002988  EFC8  F014         	goto	u2740
  6508   00298C                     u2741:
  6509   00298C  EFD0  F014         	goto	l4265
  6510   002990                     u2740:
  6511   002990  500E               	movf	___lmul@multiplicand^0,w,c
  6512   002992  2612               	addwf	___lmul@product^0,f,c
  6513   002994  500F               	movf	(___lmul@multiplicand+1)^0,w,c
  6514   002996  2213               	addwfc	(___lmul@product+1)^0,f,c
  6515   002998  5010               	movf	(___lmul@multiplicand+2)^0,w,c
  6516   00299A  2214               	addwfc	(___lmul@product+2)^0,f,c
  6517   00299C  5011               	movf	(___lmul@multiplicand+3)^0,w,c
  6518   00299E  2215               	addwfc	(___lmul@product+3)^0,f,c
  6519   0029A0                     l4265:
  6520   0029A0  90D8               	bcf	status,0,c
  6521   0029A2  360E               	rlcf	___lmul@multiplicand^0,f,c
  6522   0029A4  360F               	rlcf	(___lmul@multiplicand+1)^0,f,c
  6523   0029A6  3610               	rlcf	(___lmul@multiplicand+2)^0,f,c
  6524   0029A8  3611               	rlcf	(___lmul@multiplicand+3)^0,f,c
  6525   0029AA  90D8               	bcf	status,0,c
  6526   0029AC  320D               	rrcf	(___lmul@multiplier+3)^0,f,c
  6527   0029AE  320C               	rrcf	(___lmul@multiplier+2)^0,f,c
  6528   0029B0  320B               	rrcf	(___lmul@multiplier+1)^0,f,c
  6529   0029B2  320A               	rrcf	___lmul@multiplier^0,f,c
  6530   0029B4  500A               	movf	___lmul@multiplier^0,w,c
  6531   0029B6  100B               	iorwf	(___lmul@multiplier+1)^0,w,c
  6532   0029B8  100C               	iorwf	(___lmul@multiplier+2)^0,w,c
  6533   0029BA  100D               	iorwf	(___lmul@multiplier+3)^0,w,c
  6534   0029BC  A4D8               	btfss	status,2,c
  6535   0029BE  EFE3  F014         	goto	u2751
  6536   0029C2  EFE5  F014         	goto	u2750
  6537   0029C6                     u2751:
  6538   0029C6  EFC1  F014         	goto	l4261
  6539   0029CA                     u2750:
  6540   0029CA  C012  F00A         	movff	___lmul@product,?___lmul
  6541   0029CE  C013  F00B         	movff	___lmul@product+1,?___lmul+1
  6542   0029D2  C014  F00C         	movff	___lmul@product+2,?___lmul+2
  6543   0029D6  C015  F00D         	movff	___lmul@product+3,?___lmul+3
  6544   0029DA  0012               	return		;funcret
  6545   0029DC                     __end_of___lmul:
  6546                           	callstack 0
  6547                           
  6548 ;; *************** function _INTERRUPT_InterruptManager *****************
  6549 ;; Defined at:
  6550 ;;		line 58 in file "mcc_generated_files/interrupt_manager.c"
  6551 ;; Parameters:    Size  Location     Type
  6552 ;;		None
  6553 ;; Auto vars:     Size  Location     Type
  6554 ;;		None
  6555 ;; Return value:  Size  Location     Type
  6556 ;;                  1    wreg      void 
  6557 ;; Registers used:
  6558 ;;		wreg, fsr2l, fsr2h, status,2, status,0, pcl, pclath, pclatu, tosl, cstack
  6559 ;; Tracked objects:
  6560 ;;		On entry : 0/0
  6561 ;;		On exit  : 0/0
  6562 ;;		Unchanged: 0/0
  6563 ;; Data sizes:     COMRAM   BANK0   BANK1   BANK2   BANK3   BANK4   BANK5   BANK6   BANK7   BANK8   BANK9  BANK10  BANK1
      +1  BANK12  BANK13  BANK14  BANK15
  6564 ;;      Params:         0       0       0       0       0       0       0       0       0       0       0       0       
      +0       0       0       0       0
  6565 ;;      Locals:         0       0       0       0       0       0       0       0       0       0       0       0       
      +0       0       0       0       0
  6566 ;;      Temps:          2       0       0       0       0       0       0       0       0       0       0       0       
      +0       0       0       0       0
  6567 ;;      Totals:         2       0       0       0       0       0       0       0       0       0       0       0       
      +0       0       0       0       0
  6568 ;;Total ram usage:        2 bytes
  6569 ;; Hardware stack levels used: 1
  6570 ;; Hardware stack levels required when called: 3
  6571 ;; This function calls:
  6572 ;;		NULL
  6573 ;;		_TMR2_ISR
  6574 ;;		_TMR4_ISR
  6575 ;;		_UART1_Receive_ISR
  6576 ;;		_UART1_Transmit_ISR
  6577 ;; This function is called by:
  6578 ;;		Interrupt level 2
  6579 ;; This function uses a non-reentrant model
  6580 ;;
  6581                           
  6582                           	psect	text37
  6583   0024E4                     __ptext37:
  6584                           	callstack 0
  6585   0024E4                     _INTERRUPT_InterruptManager:
  6586                           	callstack 24
  6587                           
  6588                           ;incstack = 0
  6589   0024E4  006F FFE8  F008    	movff	pclath,??_INTERRUPT_InterruptManager
  6590   0024EA  006F FFEC  F009    	movff	pclatu,??_INTERRUPT_InterruptManager+1
  6591   0024F0                     
  6592                           ;mcc_generated_files/interrupt_manager.c: 61:     if(PIE3bits.U1TXIE == 1 && PIR3bits.U1
      +                          TXIF == 1)
  6593   0024F0  0139               	movlb	57	; () banked
  6594   0024F2  A993               	btfss	147,4,b	;volatile
  6595   0024F4  EF7E  F012         	goto	i2u181_41
  6596   0024F8  EF80  F012         	goto	i2u181_40
  6597   0024FC                     i2u181_41:
  6598   0024FC  EF95  F012         	goto	i2l529
  6599   002500                     i2u181_40:
  6600   002500                     
  6601                           ; BSR set to: 57
  6602   002500  A9A3               	btfss	163,4,b	;volatile
  6603   002502  EF85  F012         	goto	i2u182_41
  6604   002506  EF87  F012         	goto	i2u182_40
  6605   00250A                     i2u182_41:
  6606   00250A  EF95  F012         	goto	i2l529
  6607   00250E                     i2u182_40:
  6608   00250E                     
  6609                           ; BSR set to: 57
  6610                           ;mcc_generated_files/interrupt_manager.c: 62:     {;mcc_generated_files/interrupt_manage
      +                          r.c: 63:         UART1_TxInterruptHandler();
  6611   00250E  D802               	call	i2u183_48
  6612   002510  EF93  F012         	goto	i2u183_49
  6613   002514                     i2u183_48:
  6614   002514  0005               	push	
  6615   002516  6EFA               	movwf	pclath,c
  6616   002518  504E               	movf	_UART1_TxInterruptHandler^0,w,c
  6617   00251A  6EFD               	movwf	tosl,c
  6618   00251C  504F               	movf	(_UART1_TxInterruptHandler+1)^0,w,c
  6619   00251E  6EFE               	movwf	tosh,c
  6620   002520  6AFF               	clrf	tosu,c
  6621   002522  50FA               	movf	pclath,w,c
  6622   002524  0012               	return		;indir
  6623   002526                     i2u183_49:
  6624                           
  6625                           ;mcc_generated_files/interrupt_manager.c: 64:     }
  6626   002526  EFD5  F012         	goto	i2l537
  6627   00252A                     i2l529:
  6628                           
  6629                           ; BSR set to: 57
  6630   00252A  A793               	btfss	147,3,b	;volatile
  6631   00252C  EF9A  F012         	goto	i2u184_41
  6632   002530  EF9C  F012         	goto	i2u184_40
  6633   002534                     i2u184_41:
  6634   002534  EFB1  F012         	goto	i2l531
  6635   002538                     i2u184_40:
  6636   002538                     
  6637                           ; BSR set to: 57
  6638   002538  A7A3               	btfss	163,3,b	;volatile
  6639   00253A  EFA1  F012         	goto	i2u185_41
  6640   00253E  EFA3  F012         	goto	i2u185_40
  6641   002542                     i2u185_41:
  6642   002542  EFB1  F012         	goto	i2l531
  6643   002546                     i2u185_40:
  6644   002546                     
  6645                           ; BSR set to: 57
  6646                           ;mcc_generated_files/interrupt_manager.c: 66:     {;mcc_generated_files/interrupt_manage
      +                          r.c: 67:         UART1_RxInterruptHandler();
  6647   002546  D802               	call	i2u186_48
  6648   002548  EFAF  F012         	goto	i2u186_49
  6649   00254C                     i2u186_48:
  6650   00254C  0005               	push	
  6651   00254E  6EFA               	movwf	pclath,c
  6652   002550  5050               	movf	_UART1_RxInterruptHandler^0,w,c
  6653   002552  6EFD               	movwf	tosl,c
  6654   002554  5051               	movf	(_UART1_RxInterruptHandler+1)^0,w,c
  6655   002556  6EFE               	movwf	tosh,c
  6656   002558  6AFF               	clrf	tosu,c
  6657   00255A  50FA               	movf	pclath,w,c
  6658   00255C  0012               	return		;indir
  6659   00255E                     i2u186_49:
  6660                           
  6661                           ;mcc_generated_files/interrupt_manager.c: 68:     }
  6662   00255E  EFD5  F012         	goto	i2l537
  6663   002562                     i2l531:
  6664                           
  6665                           ; BSR set to: 57
  6666   002562  A197               	btfss	151,0,b	;volatile
  6667   002564  EFB6  F012         	goto	i2u187_41
  6668   002568  EFB8  F012         	goto	i2u187_40
  6669   00256C                     i2u187_41:
  6670   00256C  EFC3  F012         	goto	i2l533
  6671   002570                     i2u187_40:
  6672   002570                     
  6673                           ; BSR set to: 57
  6674   002570  A1A7               	btfss	167,0,b	;volatile
  6675   002572  EFBD  F012         	goto	i2u188_41
  6676   002576  EFBF  F012         	goto	i2u188_40
  6677   00257A                     i2u188_41:
  6678   00257A  EFC3  F012         	goto	i2l533
  6679   00257E                     i2u188_40:
  6680   00257E                     
  6681                           ; BSR set to: 57
  6682                           ;mcc_generated_files/interrupt_manager.c: 70:     {;mcc_generated_files/interrupt_manage
      +                          r.c: 71:         TMR4_ISR();
  6683   00257E  EC19  F017         	call	_TMR4_ISR	;wreg free
  6684                           
  6685                           ;mcc_generated_files/interrupt_manager.c: 72:     }
  6686   002582  EFD5  F012         	goto	i2l537
  6687   002586                     i2l533:
  6688                           
  6689                           ; BSR set to: 57
  6690   002586  A594               	btfss	148,2,b	;volatile
  6691   002588  EFC8  F012         	goto	i2u189_41
  6692   00258C  EFCA  F012         	goto	i2u189_40
  6693   002590                     i2u189_41:
  6694   002590  EFD5  F012         	goto	i2l532
  6695   002594                     i2u189_40:
  6696   002594                     
  6697                           ; BSR set to: 57
  6698   002594  A5A4               	btfss	164,2,b	;volatile
  6699   002596  EFCF  F012         	goto	i2u190_41
  6700   00259A  EFD1  F012         	goto	i2u190_40
  6701   00259E                     i2u190_41:
  6702   00259E  EFD5  F012         	goto	i2l532
  6703   0025A2                     i2u190_40:
  6704   0025A2                     
  6705                           ; BSR set to: 57
  6706                           ;mcc_generated_files/interrupt_manager.c: 74:     {;mcc_generated_files/interrupt_manage
      +                          r.c: 75:         TMR2_ISR();
  6707   0025A2  EC06  F012         	call	_TMR2_ISR	;wreg free
  6708                           
  6709                           ;mcc_generated_files/interrupt_manager.c: 76:     }
  6710   0025A6  EFD5  F012         	goto	i2l537
  6711   0025AA                     i2l532:
  6712   0025AA                     i2l537:
  6713   0025AA  0060  F027  FFFB   	movff	??_INTERRUPT_InterruptManager+1,pclatu
  6714   0025B0  0060  F023  FFFA   	movff	??_INTERRUPT_InterruptManager,pclath
  6715   0025B6  0011               	retfie		f
  6716   0025B8                     __end_of_INTERRUPT_InterruptManager:
  6717                           	callstack 0
  6718                           
  6719 ;; *************** function _UART1_Transmit_ISR *****************
  6720 ;; Defined at:
  6721 ;;		line 228 in file "mcc_generated_files/uart1.c"
  6722 ;; Parameters:    Size  Location     Type
  6723 ;;		None
  6724 ;; Auto vars:     Size  Location     Type
  6725 ;;		None
  6726 ;; Return value:  Size  Location     Type
  6727 ;;                  1    wreg      void 
  6728 ;; Registers used:
  6729 ;;		wreg, fsr2l, fsr2h, status,2, status,0
  6730 ;; Tracked objects:
  6731 ;;		On entry : 0/0
  6732 ;;		On exit  : 0/0
  6733 ;;		Unchanged: 0/0
  6734 ;; Data sizes:     COMRAM   BANK0   BANK1   BANK2   BANK3   BANK4   BANK5   BANK6   BANK7   BANK8   BANK9  BANK10  BANK1
      +1  BANK12  BANK13  BANK14  BANK15
  6735 ;;      Params:         0       0       0       0       0       0       0       0       0       0       0       0       
      +0       0       0       0       0
  6736 ;;      Locals:         0       0       0       0       0       0       0       0       0       0       0       0       
      +0       0       0       0       0
  6737 ;;      Temps:          0       0       0       0       0       0       0       0       0       0       0       0       
      +0       0       0       0       0
  6738 ;;      Totals:         0       0       0       0       0       0       0       0       0       0       0       0       
      +0       0       0       0       0
  6739 ;;Total ram usage:        0 bytes
  6740 ;; Hardware stack levels used: 1
  6741 ;; This function calls:
  6742 ;;		Nothing
  6743 ;; This function is called by:
  6744 ;;		_UART1_Initialize
  6745 ;;		_INTERRUPT_InterruptManager
  6746 ;; This function uses a non-reentrant model
  6747 ;;
  6748                           
  6749                           	psect	text38
  6750   002C30                     __ptext38:
  6751                           	callstack 0
  6752   002C30                     _UART1_Transmit_ISR:
  6753                           	callstack 26
  6754   002C30                     
  6755                           ;mcc_generated_files/uart1.c: 231:     if(sizeof(uart1TxBuffer) > uart1TxBufferRemaining
      +                          )
  6756   002C30  0E08               	movlw	8
  6757   002C32  6049               	cpfslt	_uart1TxBufferRemaining^0,c	;volatile
  6758   002C34  EF1E  F016         	goto	i2u146_41
  6759   002C38  EF20  F016         	goto	i2u146_40
  6760   002C3C                     i2u146_41:
  6761   002C3C  EF37  F016         	goto	i2l461
  6762   002C40                     i2u146_40:
  6763   002C40                     
  6764                           ;mcc_generated_files/uart1.c: 232:     {;mcc_generated_files/uart1.c: 233:         U1TXB
      +                           = uart1TxBuffer[uart1TxTail++];
  6765   002C40  0E78               	movlw	low _uart1TxBuffer
  6766   002C42  244A               	addwf	_uart1TxTail^0,w,c	;volatile
  6767   002C44  6ED9               	movwf	fsr2l,c
  6768   002C46  6ADA               	clrf	fsr2h,c
  6769   002C48  0E00               	movlw	high _uart1TxBuffer
  6770   002C4A  22DA               	addwfc	fsr2h,f,c
  6771   002C4C  50DF               	movf	indf2,w,c
  6772   002C4E  013D               	movlb	61	; () banked
  6773   002C50  6FEA               	movwf	234,b	;volatile
  6774   002C52                     
  6775                           ; BSR set to: 61
  6776   002C52  2A4A               	incf	_uart1TxTail^0,f,c	;volatile
  6777   002C54                     
  6778                           ; BSR set to: 61
  6779                           ;mcc_generated_files/uart1.c: 234:        if(sizeof(uart1TxBuffer) <= uart1TxTail)
  6780   002C54  0E07               	movlw	7
  6781   002C56  644A               	cpfsgt	_uart1TxTail^0,c	;volatile
  6782   002C58  EF30  F016         	goto	i2u147_41
  6783   002C5C  EF32  F016         	goto	i2u147_40
  6784   002C60                     i2u147_41:
  6785   002C60  EF34  F016         	goto	i2l3263
  6786   002C64                     i2u147_40:
  6787   002C64                     
  6788                           ; BSR set to: 61
  6789                           ;mcc_generated_files/uart1.c: 235:         {;mcc_generated_files/uart1.c: 236:          
      +                             uart1TxTail = 0;
  6790   002C64  0E00               	movlw	0
  6791   002C66  6E4A               	movwf	_uart1TxTail^0,c	;volatile
  6792   002C68                     i2l3263:
  6793                           
  6794                           ; BSR set to: 61
  6795                           ;mcc_generated_files/uart1.c: 238:         uart1TxBufferRemaining++;
  6796   002C68  2A49               	incf	_uart1TxBufferRemaining^0,f,c	;volatile
  6797                           
  6798                           ;mcc_generated_files/uart1.c: 239:     }
  6799   002C6A  EF39  F016         	goto	i2l464
  6800   002C6E                     i2l461:
  6801                           
  6802                           ;mcc_generated_files/uart1.c: 241:     {;mcc_generated_files/uart1.c: 242:         PIE3b
      +                          its.U1TXIE = 0;
  6803   002C6E  0139               	movlb	57	; () banked
  6804   002C70  9993               	bcf	147,4,b	;volatile
  6805   002C72                     i2l464:
  6806   002C72  0012               	return		;funcret
  6807   002C74                     __end_of_UART1_Transmit_ISR:
  6808                           	callstack 0
  6809                           
  6810 ;; *************** function _UART1_Receive_ISR *****************
  6811 ;; Defined at:
  6812 ;;		line 248 in file "mcc_generated_files/uart1.c"
  6813 ;; Parameters:    Size  Location     Type
  6814 ;;		None
  6815 ;; Auto vars:     Size  Location     Type
  6816 ;;		None
  6817 ;; Return value:  Size  Location     Type
  6818 ;;                  1    wreg      void 
  6819 ;; Registers used:
  6820 ;;		wreg, fsr2l, fsr2h, status,2, status,0, pcl, pclath, pclatu, tosl, cstack
  6821 ;; Tracked objects:
  6822 ;;		On entry : 0/0
  6823 ;;		On exit  : 0/0
  6824 ;;		Unchanged: 0/0
  6825 ;; Data sizes:     COMRAM   BANK0   BANK1   BANK2   BANK3   BANK4   BANK5   BANK6   BANK7   BANK8   BANK9  BANK10  BANK1
      +1  BANK12  BANK13  BANK14  BANK15
  6826 ;;      Params:         0       0       0       0       0       0       0       0       0       0       0       0       
      +0       0       0       0       0
  6827 ;;      Locals:         0       0       0       0       0       0       0       0       0       0       0       0       
      +0       0       0       0       0
  6828 ;;      Temps:          0       0       0       0       0       0       0       0       0       0       0       0       
      +0       0       0       0       0
  6829 ;;      Totals:         0       0       0       0       0       0       0       0       0       0       0       0       
      +0       0       0       0       0
  6830 ;;Total ram usage:        0 bytes
  6831 ;; Hardware stack levels used: 1
  6832 ;; Hardware stack levels required when called: 2
  6833 ;; This function calls:
  6834 ;;		NULL
  6835 ;;		_UART1_DefaultErrorHandler
  6836 ;;		_UART1_DefaultFramingErrorHandler
  6837 ;;		_UART1_DefaultOverrunErrorHandler
  6838 ;;		_UART1_RxDataHandler
  6839 ;; This function is called by:
  6840 ;;		_UART1_Initialize
  6841 ;;		_INTERRUPT_InterruptManager
  6842 ;; This function uses a non-reentrant model
  6843 ;;
  6844                           
  6845                           	psect	text39
  6846   0025B8                     __ptext39:
  6847                           	callstack 0
  6848   0025B8                     _UART1_Receive_ISR:
  6849                           	callstack 24
  6850   0025B8                     
  6851                           ;mcc_generated_files/uart1.c: 251:     uart1RxStatusBuffer[uart1RxHead].status = 0;
  6852   0025B8  0E68               	movlw	low _uart1RxStatusBuffer
  6853   0025BA  2448               	addwf	_uart1RxHead^0,w,c	;volatile
  6854   0025BC  6ED9               	movwf	fsr2l,c
  6855   0025BE  6ADA               	clrf	fsr2h,c
  6856   0025C0  0E00               	movlw	high _uart1RxStatusBuffer
  6857   0025C2  22DA               	addwfc	fsr2h,f,c
  6858   0025C4  6ADF               	clrf	indf2,c
  6859   0025C6                     
  6860                           ;mcc_generated_files/uart1.c: 253:     if(U1ERRIRbits.FERIF){
  6861   0025C6  013D               	movlb	61	; () banked
  6862   0025C8  A7F9               	btfss	249,3,b	;volatile
  6863   0025CA  EFE9  F012         	goto	i2u148_41
  6864   0025CE  EFEB  F012         	goto	i2u148_40
  6865   0025D2                     i2u148_41:
  6866   0025D2  EFFF  F012         	goto	i2l3273
  6867   0025D6                     i2u148_40:
  6868   0025D6                     
  6869                           ; BSR set to: 61
  6870                           ;mcc_generated_files/uart1.c: 254:         uart1RxStatusBuffer[uart1RxHead].ferr = 1;
  6871   0025D6  0E68               	movlw	low _uart1RxStatusBuffer
  6872   0025D8  2448               	addwf	_uart1RxHead^0,w,c	;volatile
  6873   0025DA  6ED9               	movwf	fsr2l,c
  6874   0025DC  6ADA               	clrf	fsr2h,c
  6875   0025DE  0E00               	movlw	high _uart1RxStatusBuffer
  6876   0025E0  22DA               	addwfc	fsr2h,f,c
  6877   0025E2  0100               	movlb	0	; () banked
  6878   0025E4  82DF               	bsf	indf2,1,c
  6879   0025E6                     
  6880                           ; BSR set to: 0
  6881                           ;mcc_generated_files/uart1.c: 255:         UART1_FramingErrorHandler();
  6882   0025E6  D802               	call	i2u149_48
  6883   0025E8  EFFF  F012         	goto	i2u149_49
  6884   0025EC                     i2u149_48:
  6885   0025EC  0005               	push	
  6886   0025EE  6EFA               	movwf	pclath,c
  6887   0025F0  504C               	movf	_UART1_FramingErrorHandler^0,w,c
  6888   0025F2  6EFD               	movwf	tosl,c
  6889   0025F4  504D               	movf	(_UART1_FramingErrorHandler+1)^0,w,c
  6890   0025F6  6EFE               	movwf	tosh,c
  6891   0025F8  6AFF               	clrf	tosu,c
  6892   0025FA  50FA               	movf	pclath,w,c
  6893   0025FC  0012               	return		;indir
  6894   0025FE                     i2u149_49:
  6895   0025FE                     i2l3273:
  6896                           
  6897                           ;mcc_generated_files/uart1.c: 258:     if(U1ERRIRbits.RXFOIF){
  6898   0025FE  013D               	movlb	61	; () banked
  6899   002600  A3F9               	btfss	249,1,b	;volatile
  6900   002602  EF05  F013         	goto	i2u150_41
  6901   002606  EF07  F013         	goto	i2u150_40
  6902   00260A                     i2u150_41:
  6903   00260A  EF1C  F013         	goto	i2l3279
  6904   00260E                     i2u150_40:
  6905   00260E                     
  6906                           ; BSR set to: 61
  6907                           ;mcc_generated_files/uart1.c: 259:         uart1RxStatusBuffer[uart1RxHead].oerr = 1;
  6908   00260E  0E68               	movlw	low _uart1RxStatusBuffer
  6909   002610  2448               	addwf	_uart1RxHead^0,w,c	;volatile
  6910   002612  6ED9               	movwf	fsr2l,c
  6911   002614  6ADA               	clrf	fsr2h,c
  6912   002616  0E00               	movlw	high _uart1RxStatusBuffer
  6913   002618  22DA               	addwfc	fsr2h,f,c
  6914   00261A  0100               	movlb	0	; () banked
  6915   00261C  84DF               	bsf	indf2,2,c
  6916   00261E                     
  6917                           ; BSR set to: 0
  6918                           ;mcc_generated_files/uart1.c: 260:         UART1_OverrunErrorHandler();
  6919   00261E  D802               	call	i2u151_48
  6920   002620  EF1C  F013         	goto	i2u151_49
  6921   002624                     i2u151_48:
  6922   002624  0005               	push	
  6923   002626  6EFA               	movwf	pclath,c
  6924   002628  0101               	movlb	1	; () banked
  6925   00262A  51E1               	movf	_UART1_OverrunErrorHandler& (0+255),w,b
  6926   00262C  6EFD               	movwf	tosl,c
  6927   00262E  51E2               	movf	(_UART1_OverrunErrorHandler+1)& (0+255),w,b
  6928   002630  6EFE               	movwf	tosh,c
  6929   002632  6AFF               	clrf	tosu,c
  6930   002634  50FA               	movf	pclath,w,c
  6931   002636  0012               	return		;indir
  6932   002638                     i2u151_49:
  6933   002638                     i2l3279:
  6934                           
  6935                           ;mcc_generated_files/uart1.c: 263:     if(uart1RxStatusBuffer[uart1RxHead].status){
  6936   002638  0E68               	movlw	low _uart1RxStatusBuffer
  6937   00263A  2448               	addwf	_uart1RxHead^0,w,c	;volatile
  6938   00263C  6ED9               	movwf	fsr2l,c
  6939   00263E  6ADA               	clrf	fsr2h,c
  6940   002640  0E00               	movlw	high _uart1RxStatusBuffer
  6941   002642  22DA               	addwfc	fsr2h,f,c
  6942   002644  50DF               	movf	indf2,w,c
  6943   002646  B4D8               	btfsc	status,2,c
  6944   002648  EF28  F013         	goto	i2u152_41
  6945   00264C  EF2A  F013         	goto	i2u152_40
  6946   002650                     i2u152_41:
  6947   002650  EF39  F013         	goto	i2l3283
  6948   002654                     i2u152_40:
  6949   002654                     
  6950                           ;mcc_generated_files/uart1.c: 264:         UART1_ErrorHandler();
  6951   002654  D802               	call	i2u153_48
  6952   002656  EF37  F013         	goto	i2u153_49
  6953   00265A                     i2u153_48:
  6954   00265A  0005               	push	
  6955   00265C  6EFA               	movwf	pclath,c
  6956   00265E  0101               	movlb	1	; () banked
  6957   002660  51DF               	movf	_UART1_ErrorHandler& (0+255),w,b
  6958   002662  6EFD               	movwf	tosl,c
  6959   002664  51E0               	movf	(_UART1_ErrorHandler+1)& (0+255),w,b
  6960   002666  6EFE               	movwf	tosh,c
  6961   002668  6AFF               	clrf	tosu,c
  6962   00266A  50FA               	movf	pclath,w,c
  6963   00266C  0012               	return		;indir
  6964   00266E                     i2u153_49:
  6965                           
  6966                           ;mcc_generated_files/uart1.c: 265:     } else {
  6967   00266E  EF3B  F013         	goto	i2l471
  6968   002672                     i2l3283:
  6969                           
  6970                           ;mcc_generated_files/uart1.c: 266:         UART1_RxDataHandler();
  6971   002672  EC9F  F016         	call	_UART1_RxDataHandler	;wreg free
  6972   002676                     i2l471:
  6973   002676  0012               	return		;funcret
  6974   002678                     __end_of_UART1_Receive_ISR:
  6975                           	callstack 0
  6976                           
  6977 ;; *************** function _UART1_DefaultOverrunErrorHandler *****************
  6978 ;; Defined at:
  6979 ;;		line 284 in file "mcc_generated_files/uart1.c"
  6980 ;; Parameters:    Size  Location     Type
  6981 ;;		None
  6982 ;; Auto vars:     Size  Location     Type
  6983 ;;		None
  6984 ;; Return value:  Size  Location     Type
  6985 ;;                  1    wreg      void 
  6986 ;; Registers used:
  6987 ;;		None
  6988 ;; Tracked objects:
  6989 ;;		On entry : 0/0
  6990 ;;		On exit  : 0/0
  6991 ;;		Unchanged: 0/0
  6992 ;; Data sizes:     COMRAM   BANK0   BANK1   BANK2   BANK3   BANK4   BANK5   BANK6   BANK7   BANK8   BANK9  BANK10  BANK1
      +1  BANK12  BANK13  BANK14  BANK15
  6993 ;;      Params:         0       0       0       0       0       0       0       0       0       0       0       0       
      +0       0       0       0       0
  6994 ;;      Locals:         0       0       0       0       0       0       0       0       0       0       0       0       
      +0       0       0       0       0
  6995 ;;      Temps:          0       0       0       0       0       0       0       0       0       0       0       0       
      +0       0       0       0       0
  6996 ;;      Totals:         0       0       0       0       0       0       0       0       0       0       0       0       
      +0       0       0       0       0
  6997 ;;Total ram usage:        0 bytes
  6998 ;; Hardware stack levels used: 1
  6999 ;; This function calls:
  7000 ;;		Nothing
  7001 ;; This function is called by:
  7002 ;;		_UART1_Initialize
  7003 ;;		_UART1_Receive_ISR
  7004 ;; This function uses a non-reentrant model
  7005 ;;
  7006                           
  7007                           	psect	text40
  7008   002EA0                     __ptext40:
  7009                           	callstack 0
  7010   002EA0                     _UART1_DefaultOverrunErrorHandler:
  7011                           	callstack 25
  7012   002EA0  0012               	return		;funcret
  7013   002EA2                     __end_of_UART1_DefaultOverrunErrorHandler:
  7014                           	callstack 0
  7015                           
  7016 ;; *************** function _UART1_DefaultFramingErrorHandler *****************
  7017 ;; Defined at:
  7018 ;;		line 282 in file "mcc_generated_files/uart1.c"
  7019 ;; Parameters:    Size  Location     Type
  7020 ;;		None
  7021 ;; Auto vars:     Size  Location     Type
  7022 ;;		None
  7023 ;; Return value:  Size  Location     Type
  7024 ;;                  1    wreg      void 
  7025 ;; Registers used:
  7026 ;;		None
  7027 ;; Tracked objects:
  7028 ;;		On entry : 0/0
  7029 ;;		On exit  : 0/0
  7030 ;;		Unchanged: 0/0
  7031 ;; Data sizes:     COMRAM   BANK0   BANK1   BANK2   BANK3   BANK4   BANK5   BANK6   BANK7   BANK8   BANK9  BANK10  BANK1
      +1  BANK12  BANK13  BANK14  BANK15
  7032 ;;      Params:         0       0       0       0       0       0       0       0       0       0       0       0       
      +0       0       0       0       0
  7033 ;;      Locals:         0       0       0       0       0       0       0       0       0       0       0       0       
      +0       0       0       0       0
  7034 ;;      Temps:          0       0       0       0       0       0       0       0       0       0       0       0       
      +0       0       0       0       0
  7035 ;;      Totals:         0       0       0       0       0       0       0       0       0       0       0       0       
      +0       0       0       0       0
  7036 ;;Total ram usage:        0 bytes
  7037 ;; Hardware stack levels used: 1
  7038 ;; This function calls:
  7039 ;;		Nothing
  7040 ;; This function is called by:
  7041 ;;		_UART1_Initialize
  7042 ;;		_UART1_Receive_ISR
  7043 ;; This function uses a non-reentrant model
  7044 ;;
  7045                           
  7046                           	psect	text41
  7047   002EA2                     __ptext41:
  7048                           	callstack 0
  7049   002EA2                     _UART1_DefaultFramingErrorHandler:
  7050                           	callstack 25
  7051   002EA2  0012               	return		;funcret
  7052   002EA4                     __end_of_UART1_DefaultFramingErrorHandler:
  7053                           	callstack 0
  7054                           
  7055 ;; *************** function _UART1_DefaultErrorHandler *****************
  7056 ;; Defined at:
  7057 ;;		line 286 in file "mcc_generated_files/uart1.c"
  7058 ;; Parameters:    Size  Location     Type
  7059 ;;		None
  7060 ;; Auto vars:     Size  Location     Type
  7061 ;;		None
  7062 ;; Return value:  Size  Location     Type
  7063 ;;                  1    wreg      void 
  7064 ;; Registers used:
  7065 ;;		wreg, fsr2l, fsr2h, status,2, status,0, cstack
  7066 ;; Tracked objects:
  7067 ;;		On entry : 0/0
  7068 ;;		On exit  : 0/0
  7069 ;;		Unchanged: 0/0
  7070 ;; Data sizes:     COMRAM   BANK0   BANK1   BANK2   BANK3   BANK4   BANK5   BANK6   BANK7   BANK8   BANK9  BANK10  BANK1
      +1  BANK12  BANK13  BANK14  BANK15
  7071 ;;      Params:         0       0       0       0       0       0       0       0       0       0       0       0       
      +0       0       0       0       0
  7072 ;;      Locals:         0       0       0       0       0       0       0       0       0       0       0       0       
      +0       0       0       0       0
  7073 ;;      Temps:          0       0       0       0       0       0       0       0       0       0       0       0       
      +0       0       0       0       0
  7074 ;;      Totals:         0       0       0       0       0       0       0       0       0       0       0       0       
      +0       0       0       0       0
  7075 ;;Total ram usage:        0 bytes
  7076 ;; Hardware stack levels used: 1
  7077 ;; Hardware stack levels required when called: 1
  7078 ;; This function calls:
  7079 ;;		_UART1_RxDataHandler
  7080 ;; This function is called by:
  7081 ;;		_UART1_Initialize
  7082 ;;		_UART1_Receive_ISR
  7083 ;; This function uses a non-reentrant model
  7084 ;;
  7085                           
  7086                           	psect	text42
  7087   002E90                     __ptext42:
  7088                           	callstack 0
  7089   002E90                     _UART1_DefaultErrorHandler:
  7090                           	callstack 24
  7091   002E90                     
  7092                           ;mcc_generated_files/uart1.c: 287:     UART1_RxDataHandler();
  7093   002E90  EC9F  F016         	call	_UART1_RxDataHandler	;wreg free
  7094   002E94  0012               	return		;funcret
  7095   002E96                     __end_of_UART1_DefaultErrorHandler:
  7096                           	callstack 0
  7097                           
  7098 ;; *************** function _UART1_RxDataHandler *****************
  7099 ;; Defined at:
  7100 ;;		line 272 in file "mcc_generated_files/uart1.c"
  7101 ;; Parameters:    Size  Location     Type
  7102 ;;		None
  7103 ;; Auto vars:     Size  Location     Type
  7104 ;;		None
  7105 ;; Return value:  Size  Location     Type
  7106 ;;                  1    wreg      void 
  7107 ;; Registers used:
  7108 ;;		wreg, fsr2l, fsr2h, status,2, status,0
  7109 ;; Tracked objects:
  7110 ;;		On entry : 0/0
  7111 ;;		On exit  : 0/0
  7112 ;;		Unchanged: 0/0
  7113 ;; Data sizes:     COMRAM   BANK0   BANK1   BANK2   BANK3   BANK4   BANK5   BANK6   BANK7   BANK8   BANK9  BANK10  BANK1
      +1  BANK12  BANK13  BANK14  BANK15
  7114 ;;      Params:         0       0       0       0       0       0       0       0       0       0       0       0       
      +0       0       0       0       0
  7115 ;;      Locals:         0       0       0       0       0       0       0       0       0       0       0       0       
      +0       0       0       0       0
  7116 ;;      Temps:          0       0       0       0       0       0       0       0       0       0       0       0       
      +0       0       0       0       0
  7117 ;;      Totals:         0       0       0       0       0       0       0       0       0       0       0       0       
      +0       0       0       0       0
  7118 ;;Total ram usage:        0 bytes
  7119 ;; Hardware stack levels used: 1
  7120 ;; This function calls:
  7121 ;;		Nothing
  7122 ;; This function is called by:
  7123 ;;		_UART1_Receive_ISR
  7124 ;;		_UART1_DefaultErrorHandler
  7125 ;; This function uses a non-reentrant model
  7126 ;;
  7127                           
  7128                           	psect	text43
  7129   002D3E                     __ptext43:
  7130                           	callstack 0
  7131   002D3E                     _UART1_RxDataHandler:
  7132                           	callstack 25
  7133   002D3E                     
  7134                           ;mcc_generated_files/uart1.c: 274:     uart1RxBuffer[uart1RxHead++] = U1RXB;
  7135   002D3E  0E70               	movlw	low _uart1RxBuffer
  7136   002D40  2448               	addwf	_uart1RxHead^0,w,c	;volatile
  7137   002D42  6ED9               	movwf	fsr2l,c
  7138   002D44  6ADA               	clrf	fsr2h,c
  7139   002D46  0E00               	movlw	high _uart1RxBuffer
  7140   002D48  22DA               	addwfc	fsr2h,f,c
  7141   002D4A  006F F7A3 FFDF     	movff	15848,indf2	;volatile
  7142   002D50  2A48               	incf	_uart1RxHead^0,f,c	;volatile
  7143   002D52                     
  7144                           ;mcc_generated_files/uart1.c: 275:     if(sizeof(uart1RxBuffer) <= uart1RxHead)
  7145   002D52  0E07               	movlw	7
  7146   002D54  6448               	cpfsgt	_uart1RxHead^0,c	;volatile
  7147   002D56  EFAF  F016         	goto	i2u134_41
  7148   002D5A  EFB1  F016         	goto	i2u134_40
  7149   002D5E                     i2u134_41:
  7150   002D5E  EFB3  F016         	goto	i2l3059
  7151   002D62                     i2u134_40:
  7152   002D62                     
  7153                           ;mcc_generated_files/uart1.c: 276:     {;mcc_generated_files/uart1.c: 277:         uart1
      +                          RxHead = 0;
  7154   002D62  0E00               	movlw	0
  7155   002D64  6E48               	movwf	_uart1RxHead^0,c	;volatile
  7156   002D66                     i2l3059:
  7157                           
  7158                           ;mcc_generated_files/uart1.c: 279:     uart1RxCount++;
  7159   002D66  2A46               	incf	_uart1RxCount^0,f,c	;volatile
  7160   002D68  0012               	return		;funcret
  7161   002D6A                     __end_of_UART1_RxDataHandler:
  7162                           	callstack 0
  7163                           
  7164 ;; *************** function _TMR4_ISR *****************
  7165 ;; Defined at:
  7166 ;;		line 167 in file "mcc_generated_files/tmr4.c"
  7167 ;; Parameters:    Size  Location     Type
  7168 ;;		None
  7169 ;; Auto vars:     Size  Location     Type
  7170 ;;		None
  7171 ;; Return value:  Size  Location     Type
  7172 ;;                  1    wreg      void 
  7173 ;; Registers used:
  7174 ;;		wreg, status,2
  7175 ;; Tracked objects:
  7176 ;;		On entry : 0/0
  7177 ;;		On exit  : 0/0
  7178 ;;		Unchanged: 0/0
  7179 ;; Data sizes:     COMRAM   BANK0   BANK1   BANK2   BANK3   BANK4   BANK5   BANK6   BANK7   BANK8   BANK9  BANK10  BANK1
      +1  BANK12  BANK13  BANK14  BANK15
  7180 ;;      Params:         0       0       0       0       0       0       0       0       0       0       0       0       
      +0       0       0       0       0
  7181 ;;      Locals:         0       0       0       0       0       0       0       0       0       0       0       0       
      +0       0       0       0       0
  7182 ;;      Temps:          0       0       0       0       0       0       0       0       0       0       0       0       
      +0       0       0       0       0
  7183 ;;      Totals:         0       0       0       0       0       0       0       0       0       0       0       0       
      +0       0       0       0       0
  7184 ;;Total ram usage:        0 bytes
  7185 ;; Hardware stack levels used: 1
  7186 ;; This function calls:
  7187 ;;		Nothing
  7188 ;; This function is called by:
  7189 ;;		_INTERRUPT_InterruptManager
  7190 ;; This function uses a non-reentrant model
  7191 ;;
  7192                           
  7193                           	psect	text44
  7194   002E32                     __ptext44:
  7195                           	callstack 0
  7196   002E32                     _TMR4_ISR:
  7197                           	callstack 26
  7198   002E32                     
  7199                           ;mcc_generated_files/tmr4.c: 171:     PIR7bits.TMR4IF = 0;
  7200   002E32  0139               	movlb	57	; () banked
  7201   002E34  91A7               	bcf	167,0,b	;volatile
  7202   002E36                     
  7203                           ; BSR set to: 57
  7204                           ;mcc_generated_files/tmr4.c: 173:     ask_page = 1;
  7205   002E36  0E00               	movlw	0
  7206   002E38  0100               	movlb	0	; () banked
  7207   002E3A  6FA5               	movwf	(_ask_page+1)& (0+255),b
  7208   002E3C  0E01               	movlw	1
  7209   002E3E  6FA4               	movwf	_ask_page& (0+255),b
  7210   002E40                     
  7211                           ; BSR set to: 0
  7212   002E40  0012               	return		;funcret
  7213   002E42                     __end_of_TMR4_ISR:
  7214                           	callstack 0
  7215                           
  7216 ;; *************** function _TMR2_ISR *****************
  7217 ;; Defined at:
  7218 ;;		line 176 in file "mcc_generated_files/tmr2.c"
  7219 ;; Parameters:    Size  Location     Type
  7220 ;;		None
  7221 ;; Auto vars:     Size  Location     Type
  7222 ;;		None
  7223 ;; Return value:  Size  Location     Type
  7224 ;;                  1    wreg      void 
  7225 ;; Registers used:
  7226 ;;		wreg, status,2, status,0, cstack
  7227 ;; Tracked objects:
  7228 ;;		On entry : 0/0
  7229 ;;		On exit  : 0/0
  7230 ;;		Unchanged: 0/0
  7231 ;; Data sizes:     COMRAM   BANK0   BANK1   BANK2   BANK3   BANK4   BANK5   BANK6   BANK7   BANK8   BANK9  BANK10  BANK1
      +1  BANK12  BANK13  BANK14  BANK15
  7232 ;;      Params:         0       0       0       0       0       0       0       0       0       0       0       0       
      +0       0       0       0       0
  7233 ;;      Locals:         0       0       0       0       0       0       0       0       0       0       0       0       
      +0       0       0       0       0
  7234 ;;      Temps:          2       0       0       0       0       0       0       0       0       0       0       0       
      +0       0       0       0       0
  7235 ;;      Totals:         2       0       0       0       0       0       0       0       0       0       0       0       
      +0       0       0       0       0
  7236 ;;Total ram usage:        2 bytes
  7237 ;; Hardware stack levels used: 1
  7238 ;; Hardware stack levels required when called: 1
  7239 ;; This function calls:
  7240 ;;		_ADCC_GetSingleConversion
  7241 ;; This function is called by:
  7242 ;;		_INTERRUPT_InterruptManager
  7243 ;; This function uses a non-reentrant model
  7244 ;;
  7245                           
  7246                           	psect	text45
  7247   00240C                     __ptext45:
  7248                           	callstack 0
  7249   00240C                     _TMR2_ISR:
  7250                           	callstack 25
  7251   00240C                     
  7252                           ;mcc_generated_files/tmr2.c: 180:     static int counter = 0;;mcc_generated_files/tmr2.c
      +                          : 181:     static STATE_GEN_PWM_T state = HIGH_0;;mcc_generated_files/tmr2.c: 182:     P
      +                          IR4bits.TMR2IF = 0;
  7253   00240C  0139               	movlb	57	; () banked
  7254   00240E  95A4               	bcf	164,2,b	;volatile
  7255                           
  7256                           ;mcc_generated_files/tmr2.c: 185:     switch(state)
  7257   002410  EF3C  F012         	goto	i2l3309
  7258   002414                     i2l694:
  7259                           
  7260                           ; BSR set to: 57
  7261   002414  8EBD               	bsf	189,7,c	;volatile
  7262   002416                     
  7263                           ; BSR set to: 57
  7264                           ;mcc_generated_files/tmr2.c: 189:             adc_0 = ADCC_GetSingleConversion(0x0);
  7265   002416  0E00               	movlw	0
  7266   002418  EC5A  F016         	call	_ADCC_GetSingleConversion
  7267   00241C  C001  F041         	movff	?_ADCC_GetSingleConversion,_adc_0
  7268   002420  C002  F042         	movff	?_ADCC_GetSingleConversion+1,_adc_0+1
  7269   002424                     
  7270                           ;mcc_generated_files/tmr2.c: 191:             adc_0_acc += (int32_t)(adc_0);
  7271   002424  5041               	movf	_adc_0^0,w,c
  7272   002426  0100               	movlb	0	; () banked
  7273   002428  278C               	addwf	_adc_0_acc& (0+255),f,b
  7274   00242A  5042               	movf	(_adc_0+1)^0,w,c
  7275   00242C  238D               	addwfc	(_adc_0_acc+1)& (0+255),f,b
  7276   00242E  0E00               	movlw	0
  7277   002430  238E               	addwfc	(_adc_0_acc+2)& (0+255),f,b
  7278   002432  0E00               	movlw	0
  7279   002434  238F               	addwfc	(_adc_0_acc+3)& (0+255),f,b
  7280   002436                     
  7281                           ; BSR set to: 0
  7282                           ;mcc_generated_files/tmr2.c: 192:             state = HIGH_1;
  7283   002436  0E01               	movlw	1
  7284   002438  6E44               	movwf	TMR2_ISR@state^0,c
  7285                           
  7286                           ;mcc_generated_files/tmr2.c: 193:             break;
  7287   00243A  EF59  F012         	goto	i2l3311
  7288   00243E                     i2l3297:
  7289                           
  7290                           ; BSR set to: 57
  7291                           ;mcc_generated_files/tmr2.c: 196:             adc_1 = ADCC_GetSingleConversion(0x0);
  7292   00243E  0E00               	movlw	0
  7293   002440  EC5A  F016         	call	_ADCC_GetSingleConversion
  7294   002444  C001  F03F         	movff	?_ADCC_GetSingleConversion,_adc_1
  7295   002448  C002  F040         	movff	?_ADCC_GetSingleConversion+1,_adc_1+1
  7296   00244C                     
  7297                           ;mcc_generated_files/tmr2.c: 198:             adc_1_acc += (int32_t)(adc_1);
  7298   00244C  503F               	movf	_adc_1^0,w,c
  7299   00244E  0100               	movlb	0	; () banked
  7300   002450  2788               	addwf	_adc_1_acc& (0+255),f,b
  7301   002452  5040               	movf	(_adc_1+1)^0,w,c
  7302   002454  2389               	addwfc	(_adc_1_acc+1)& (0+255),f,b
  7303   002456  0E00               	movlw	0
  7304   002458  238A               	addwfc	(_adc_1_acc+2)& (0+255),f,b
  7305   00245A  0E00               	movlw	0
  7306   00245C  238B               	addwfc	(_adc_1_acc+3)& (0+255),f,b
  7307   00245E                     
  7308                           ; BSR set to: 0
  7309                           ;mcc_generated_files/tmr2.c: 199:             state = LOW_0;
  7310   00245E  0E02               	movlw	2
  7311   002460  6E44               	movwf	TMR2_ISR@state^0,c
  7312                           
  7313                           ;mcc_generated_files/tmr2.c: 200:             break;
  7314   002462  EF59  F012         	goto	i2l3311
  7315   002466                     i2l699:
  7316                           
  7317                           ; BSR set to: 57
  7318   002466  9EBD               	bcf	189,7,c	;volatile
  7319   002468                     
  7320                           ; BSR set to: 57
  7321                           ;mcc_generated_files/tmr2.c: 206:             state = LOW_1;
  7322   002468  0E03               	movlw	3
  7323   00246A  6E44               	movwf	TMR2_ISR@state^0,c
  7324                           
  7325                           ;mcc_generated_files/tmr2.c: 207:             break;
  7326   00246C  EF59  F012         	goto	i2l3311
  7327   002470                     i2l3305:
  7328                           
  7329                           ; BSR set to: 57
  7330                           ;mcc_generated_files/tmr2.c: 212:             state = HIGH_0;
  7331   002470  0E00               	movlw	0
  7332   002472  6E44               	movwf	TMR2_ISR@state^0,c
  7333                           
  7334                           ;mcc_generated_files/tmr2.c: 213:             break;
  7335   002474  EF59  F012         	goto	i2l3311
  7336   002478                     i2l3309:
  7337                           
  7338                           ; BSR set to: 57
  7339   002478  5044               	movf	TMR2_ISR@state^0,w,c
  7340   00247A  6E06               	movwf	??_TMR2_ISR^0,c
  7341   00247C  6A07               	clrf	(??_TMR2_ISR+1)^0,c
  7342                           
  7343                           ; Switch on 2 bytes has been partitioned into a top level switch of size 1, and 1 sub-sw
      +                          itches
  7344                           ; Switch size 1, requested type "simple"
  7345                           ; Number of cases is 1, Range of values is 0 to 0
  7346                           ; switch strategies available:
  7347                           ; Name         Instructions Cycles
  7348                           ; simple_byte            4     3 (average)
  7349                           ;	Chosen strategy is simple_byte
  7350   00247E  5007               	movf	(??_TMR2_ISR+1)^0,w,c
  7351   002480  0A00               	xorlw	0	; case 0
  7352   002482  B4D8               	btfsc	status,2,c
  7353   002484  EF46  F012         	goto	i2l5043
  7354   002488  EF59  F012         	goto	i2l3311
  7355   00248C                     i2l5043:
  7356                           
  7357                           ; BSR set to: 57
  7358                           ; Switch size 1, requested type "simple"
  7359                           ; Number of cases is 4, Range of values is 0 to 3
  7360                           ; switch strategies available:
  7361                           ; Name         Instructions Cycles
  7362                           ; simple_byte           13     7 (average)
  7363                           ;	Chosen strategy is simple_byte
  7364   00248C  5006               	movf	??_TMR2_ISR^0,w,c
  7365   00248E  0A00               	xorlw	0	; case 0
  7366   002490  B4D8               	btfsc	status,2,c
  7367   002492  EF0A  F012         	goto	i2l694
  7368   002496  0A01               	xorlw	1	; case 1
  7369   002498  B4D8               	btfsc	status,2,c
  7370   00249A  EF1F  F012         	goto	i2l3297
  7371   00249E  0A03               	xorlw	3	; case 2
  7372   0024A0  B4D8               	btfsc	status,2,c
  7373   0024A2  EF33  F012         	goto	i2l699
  7374   0024A6  0A01               	xorlw	1	; case 3
  7375   0024A8  B4D8               	btfsc	status,2,c
  7376   0024AA  EF38  F012         	goto	i2l3305
  7377   0024AE  EF59  F012         	goto	i2l3311
  7378   0024B2                     i2l3311:
  7379                           
  7380                           ;mcc_generated_files/tmr2.c: 216:     if(counter >= 256)
  7381   0024B2  BE3E               	btfsc	(TMR2_ISR@counter+1)^0,7,c
  7382   0024B4  EF62  F012         	goto	i2u154_41
  7383   0024B8  043E               	decf	(TMR2_ISR@counter+1)^0,w,c
  7384   0024BA  A0D8               	btfss	status,0,c
  7385   0024BC  EF62  F012         	goto	i2u154_41
  7386   0024C0  EF64  F012         	goto	i2u154_40
  7387   0024C4                     i2u154_41:
  7388   0024C4  EF6F  F012         	goto	i2l3315
  7389   0024C8                     i2u154_40:
  7390   0024C8                     
  7391                           ;mcc_generated_files/tmr2.c: 217:     {;mcc_generated_files/tmr2.c: 218:         flag_me
      +                          as_acc = 1;
  7392   0024C8  0E00               	movlw	0
  7393   0024CA  0100               	movlb	0	; () banked
  7394   0024CC  6FA7               	movwf	(_flag_meas_acc+1)& (0+255),b
  7395   0024CE  0E01               	movlw	1
  7396   0024D0  6FA6               	movwf	_flag_meas_acc& (0+255),b
  7397                           
  7398                           ;mcc_generated_files/tmr2.c: 219:         counter = 0;
  7399   0024D2  0E00               	movlw	0
  7400   0024D4  6E3E               	movwf	(TMR2_ISR@counter+1)^0,c
  7401   0024D6  0E00               	movlw	0
  7402   0024D8  6E3D               	movwf	TMR2_ISR@counter^0,c
  7403                           
  7404                           ;mcc_generated_files/tmr2.c: 220:     }
  7405   0024DA  EF71  F012         	goto	i2l704
  7406   0024DE                     i2l3315:
  7407                           
  7408                           ;mcc_generated_files/tmr2.c: 222:     {;mcc_generated_files/tmr2.c: 223:     counter++;
  7409   0024DE  4A3D               	infsnz	TMR2_ISR@counter^0,f,c
  7410   0024E0  2A3E               	incf	(TMR2_ISR@counter+1)^0,f,c
  7411   0024E2                     i2l704:
  7412   0024E2  0012               	return		;funcret
  7413   0024E4                     __end_of_TMR2_ISR:
  7414                           	callstack 0
  7415                           
  7416 ;; *************** function _ADCC_GetSingleConversion *****************
  7417 ;; Defined at:
  7418 ;;		line 137 in file "mcc_generated_files/adcc.c"
  7419 ;; Parameters:    Size  Location     Type
  7420 ;;  channel         1    wreg     enum E16226
  7421 ;; Auto vars:     Size  Location     Type
  7422 ;;  channel         1    4[COMRAM] enum E16226
  7423 ;; Return value:  Size  Location     Type
  7424 ;;                  2    0[COMRAM] unsigned short 
  7425 ;; Registers used:
  7426 ;;		wreg, status,2, status,0
  7427 ;; Tracked objects:
  7428 ;;		On entry : 0/0
  7429 ;;		On exit  : 0/0
  7430 ;;		Unchanged: 0/0
  7431 ;; Data sizes:     COMRAM   BANK0   BANK1   BANK2   BANK3   BANK4   BANK5   BANK6   BANK7   BANK8   BANK9  BANK10  BANK1
      +1  BANK12  BANK13  BANK14  BANK15
  7432 ;;      Params:         2       0       0       0       0       0       0       0       0       0       0       0       
      +0       0       0       0       0
  7433 ;;      Locals:         1       0       0       0       0       0       0       0       0       0       0       0       
      +0       0       0       0       0
  7434 ;;      Temps:          2       0       0       0       0       0       0       0       0       0       0       0       
      +0       0       0       0       0
  7435 ;;      Totals:         5       0       0       0       0       0       0       0       0       0       0       0       
      +0       0       0       0       0
  7436 ;;Total ram usage:        5 bytes
  7437 ;; Hardware stack levels used: 1
  7438 ;; This function calls:
  7439 ;;		Nothing
  7440 ;; This function is called by:
  7441 ;;		_TMR2_ISR
  7442 ;; This function uses a non-reentrant model
  7443 ;;
  7444                           
  7445                           	psect	text46
  7446   002CB4                     __ptext46:
  7447                           	callstack 0
  7448   002CB4                     _ADCC_GetSingleConversion:
  7449                           	callstack 25
  7450                           
  7451                           ;incstack = 0
  7452                           ;ADCC_GetSingleConversion@channel stored from wreg
  7453   002CB4  6E05               	movwf	ADCC_GetSingleConversion@channel^0,c
  7454   002CB6                     
  7455                           ;mcc_generated_files/adcc.c: 137: adc_result_t ADCC_GetSingleConversion(adcc_channel_t c
      +                          hannel);mcc_generated_files/adcc.c: 138: {;mcc_generated_files/adcc.c: 140:     ADPCH = 
      +                          channel;
  7456   002CB6  0060  F017  FEF1   	movff	ADCC_GetSingleConversion@channel,16113	;volatile
  7457   002CBC                     
  7458                           ;mcc_generated_files/adcc.c: 143:     ADCON0bits.ADON = 1;
  7459   002CBC  013E               	movlb	62	; () banked
  7460   002CBE  8FF8               	bsf	248,7,b	;volatile
  7461   002CC0                     
  7462                           ; BSR set to: 62
  7463                           ;mcc_generated_files/adcc.c: 146:     ADCON0bits.ADCONT = 0;
  7464   002CC0  9DF8               	bcf	248,6,b	;volatile
  7465   002CC2                     
  7466                           ; BSR set to: 62
  7467                           ;mcc_generated_files/adcc.c: 149:     ADCON0bits.ADGO = 1;
  7468   002CC2  81F8               	bsf	248,0,b	;volatile
  7469   002CC4                     i2l268:
  7470                           
  7471                           ; BSR set to: 62
  7472                           ;mcc_generated_files/adcc.c: 153:     while (ADCON0bits.ADGO)
  7473   002CC4  B1F8               	btfsc	248,0,b	;volatile
  7474   002CC6  EF67  F016         	goto	i2u135_41
  7475   002CCA  EF69  F016         	goto	i2u135_40
  7476   002CCE                     i2u135_41:
  7477   002CCE  EF62  F016         	goto	i2l268
  7478   002CD2                     i2u135_40:
  7479   002CD2                     
  7480                           ; BSR set to: 62
  7481                           ;mcc_generated_files/adcc.c: 159:     return ((adc_result_t)((ADRESH << 8) + ADRESL));
  7482   002CD2  51F0               	movf	240,w,b	;volatile
  7483   002CD4  6E04               	movwf	(??_ADCC_GetSingleConversion+1)^0,c
  7484   002CD6  6A03               	clrf	??_ADCC_GetSingleConversion^0,c
  7485   002CD8  51EF               	movf	239,w,b	;volatile
  7486   002CDA  2403               	addwf	??_ADCC_GetSingleConversion^0,w,c
  7487   002CDC  6E01               	movwf	?_ADCC_GetSingleConversion^0,c
  7488   002CDE  0E00               	movlw	0
  7489   002CE0  2004               	addwfc	(??_ADCC_GetSingleConversion+1)^0,w,c
  7490   002CE2  6E02               	movwf	(?_ADCC_GetSingleConversion+1)^0,c
  7491   002CE4                     
  7492                           ; BSR set to: 62
  7493   002CE4  0012               	return		;funcret
  7494   002CE6                     __end_of_ADCC_GetSingleConversion:
  7495                           	callstack 0
  7496                           
  7497                           ;
  7498                           ; Interrupt Vector Table @ 0x8
  7499                           ;
  7500                           
  7501                           	psect	ivt0x8
  7502   000008                     __pivt0x8:
  7503                           	callstack 0
  7504   000008                     ivt0x8_base:
  7505                           	callstack 0
  7506                           
  7507                           ; high-priority vector
  7508   000008  EF72  F012         	goto	_INTERRUPT_InterruptManager
  7509   000018                     	org	16
  7510                           
  7511                           ; low-priority vector
  7512   000018  00FF               	reset	
  7513                           
  7514                           	psect	text47
  7515   000000                     __ptext47:
  7516                           	callstack 0
  7517   000000                     
  7518                           	psect	rparam
  7519   000000                     
  7520                           	psect	idloc
  7521                           
  7522                           ;Config register IDLOC0 @ 0x200000
  7523                           ;	unspecified, using default values
  7524   200000                     	org	2097152
  7525   200000  FFFF               	dw	65535
  7526                           
  7527                           ;Config register IDLOC1 @ 0x200002
  7528                           ;	unspecified, using default values
  7529   200002                     	org	2097154
  7530   200002  FFFF               	dw	65535
  7531                           
  7532                           ;Config register IDLOC2 @ 0x200004
  7533                           ;	unspecified, using default values
  7534   200004                     	org	2097156
  7535   200004  FFFF               	dw	65535
  7536                           
  7537                           ;Config register IDLOC3 @ 0x200006
  7538                           ;	unspecified, using default values
  7539   200006                     	org	2097158
  7540   200006  FFFF               	dw	65535
  7541                           
  7542                           ;Config register IDLOC4 @ 0x200008
  7543                           ;	unspecified, using default values
  7544   200008                     	org	2097160
  7545   200008  FFFF               	dw	65535
  7546                           
  7547                           ;Config register IDLOC5 @ 0x20000A
  7548                           ;	unspecified, using default values
  7549   20000A                     	org	2097162
  7550   20000A  FFFF               	dw	65535
  7551                           
  7552                           ;Config register IDLOC6 @ 0x20000C
  7553                           ;	unspecified, using default values
  7554   20000C                     	org	2097164
  7555   20000C  FFFF               	dw	65535
  7556                           
  7557                           ;Config register IDLOC7 @ 0x20000E
  7558                           ;	unspecified, using default values
  7559   20000E                     	org	2097166
  7560   20000E  FFFF               	dw	65535
  7561                           
  7562                           	psect	config
  7563                           
  7564                           ;Config register CONFIG1L @ 0x300000
  7565                           ;	External Oscillator Selection
  7566                           ;	FEXTOSC = OFF, Oscillator not enabled
  7567                           ;	Reset Oscillator Selection
  7568                           ;	RSTOSC = HFINTOSC_64MHZ, HFINTOSC with HFFRQ = 64 MHz and CDIV = 1:1
  7569   300000                     	org	3145728
  7570   300000  8C                 	db	140
  7571                           
  7572                           ;Config register CONFIG1H @ 0x300001
  7573                           ;	Clock out Enable bit
  7574                           ;	CLKOUTEN = OFF, CLKOUT function is disabled
  7575                           ;	PRLOCKED One-Way Set Enable bit
  7576                           ;	PR1WAY = ON, PRLOCK bit can be cleared and set only once
  7577                           ;	Clock Switch Enable bit
  7578                           ;	CSWEN = ON, Writing to NOSC and NDIV is allowed
  7579                           ;	Fail-Safe Clock Monitor Enable bit
  7580                           ;	FCMEN = ON, Fail-Safe Clock Monitor enabled
  7581   300001                     	org	3145729
  7582   300001  FF                 	db	255
  7583                           
  7584                           ;Config register CONFIG2L @ 0x300002
  7585                           ;	MCLR Enable bit
  7586                           ;	MCLRE = EXTMCLR, If LVP = 0, MCLR pin is MCLR; If LVP = 1, RE3 pin function is MCLR
  7587                           ;	Power-up timer selection bits
  7588                           ;	PWRTS = PWRT_OFF, PWRT is disabled
  7589                           ;	Multi-vector enable bit
  7590                           ;	MVECEN = OFF, Interrupt contoller does not use vector table to prioritze interrupts
  7591                           ;	IVTLOCK bit One-way set enable bit
  7592                           ;	IVT1WAY = ON, IVTLOCK bit can be cleared and set only once
  7593                           ;	Low Power BOR Enable bit
  7594                           ;	LPBOREN = OFF, ULPBOR disabled
  7595                           ;	Brown-out Reset Enable bits
  7596                           ;	BOREN = SBORDIS, Brown-out Reset enabled , SBOREN bit is ignored
  7597   300002                     	org	3145730
  7598   300002  F7                 	db	247
  7599                           
  7600                           ;Config register CONFIG2H @ 0x300003
  7601                           ;	Brown-out Reset Voltage Selection bits
  7602                           ;	BORV = VBOR_2P45, Brown-out Reset Voltage (VBOR) set to 2.45V
  7603                           ;	ZCD Disable bit
  7604                           ;	ZCD = OFF, ZCD disabled. ZCD can be enabled by setting the ZCDSEN bit of ZCDCON
  7605                           ;	PPSLOCK bit One-Way Set Enable bit
  7606                           ;	PPS1WAY = ON, PPSLOCK bit can be cleared and set only once; PPS registers remain locke
      +                          d after one clear/set cycle
  7607                           ;	Stack Full/Underflow Reset Enable bit
  7608                           ;	STVREN = ON, Stack full/underflow will cause Reset
  7609                           ;	Debugger Enable bit
  7610                           ;	DEBUG = OFF, Background debugger disabled
  7611                           ;	Extended Instruction Set Enable bit
  7612                           ;	XINST = OFF, Extended Instruction Set and Indexed Addressing Mode disabled
  7613   300003                     	org	3145731
  7614   300003  FF                 	db	255
  7615                           
  7616                           ;Config register CONFIG3L @ 0x300004
  7617                           ;	WDT Period selection bits
  7618                           ;	WDTCPS = WDTCPS_31, Divider ratio 1:65536; software control of WDTPS
  7619                           ;	WDT operating mode
  7620                           ;	WDTE = OFF, WDT Disabled; SWDTEN is ignored
  7621   300004                     	org	3145732
  7622   300004  9F                 	db	159
  7623                           
  7624                           ;Config register CONFIG3H @ 0x300005
  7625                           ;	WDT Window Select bits
  7626                           ;	WDTCWS = WDTCWS_7, window always open (100%); software control; keyed access not requi
      +                          red
  7627                           ;	WDT input clock selector
  7628                           ;	WDTCCS = SC, Software Control
  7629   300005                     	org	3145733
  7630   300005  FF                 	db	255
  7631                           
  7632                           ;Config register CONFIG4L @ 0x300006
  7633                           ;	Boot Block Size selection bits
  7634                           ;	BBSIZE = BBSIZE_512, Boot Block size is 512 words
  7635                           ;	Boot Block enable bit
  7636                           ;	BBEN = OFF, Boot block disabled
  7637                           ;	Storage Area Flash enable bit
  7638                           ;	SAFEN = OFF, SAF disabled
  7639                           ;	Application Block write protection bit
  7640                           ;	WRTAPP = OFF, Application Block not write protected
  7641   300006                     	org	3145734
  7642   300006  FF                 	db	255
  7643                           
  7644                           ;Config register CONFIG4H @ 0x300007
  7645                           ;	Boot Block Write Protection bit
  7646                           ;	WRTB = OFF, Boot Block not write-protected
  7647                           ;	Configuration Register Write Protection bit
  7648                           ;	WRTC = OFF, Configuration registers not write-protected
  7649                           ;	Data EEPROM Write Protection bit
  7650                           ;	WRTD = OFF, Data EEPROM not write-protected
  7651                           ;	SAF Write protection bit
  7652                           ;	WRTSAF = OFF, SAF not Write Protected
  7653                           ;	Low Voltage Programming Enable bit
  7654                           ;	LVP = ON, Low voltage programming enabled. MCLR/VPP pin function is MCLR. MCLRE config
      +                          uration bit is ignored
  7655   300007                     	org	3145735
  7656   300007  FF                 	db	255
  7657                           
  7658                           ;Config register CONFIG5L @ 0x300008
  7659                           ;	PFM and Data EEPROM Code Protection bit
  7660                           ;	CP = OFF, PFM and Data EEPROM code protection disabled
  7661   300008                     	org	3145736
  7662   300008  FF                 	db	255
  7663                           
  7664                           ;Config register CONFIG5H @ 0x300009
  7665                           ;	unspecified, using default values
  7666   300009                     	org	3145737
  7667   300009  FF                 	db	255
  7668                           tosu	equ	0x3FFF
  7669                           tosh	equ	0x3FFE
  7670                           tosl	equ	0x3FFD
  7671                           stkptr	equ	0x3FFC
  7672                           pclatu	equ	0x3FFB
  7673                           pclath	equ	0x3FFA
  7674                           pcl	equ	0x3FF9
  7675                           tblptru	equ	0x3FF8
  7676                           tblptrh	equ	0x3FF7
  7677                           tblptrl	equ	0x3FF6
  7678                           tablat	equ	0x3FF5
  7679                           prodh	equ	0x3FF4
  7680                           prodl	equ	0x3FF3
  7681                           indf0	equ	0x3FEF
  7682                           postinc0	equ	0x3FEE
  7683                           postdec0	equ	0x3FED
  7684                           preinc0	equ	0x3FEC
  7685                           plusw0	equ	0x3FEB
  7686                           fsr0h	equ	0x3FEA
  7687                           fsr0l	equ	0x3FE9
  7688                           wreg	equ	0x3FE8
  7689                           indf1	equ	0x3FE7
  7690                           postinc1	equ	0x3FE6
  7691                           postdec1	equ	0x3FE5
  7692                           preinc1	equ	0x3FE4
  7693                           plusw1	equ	0x3FE3
  7694                           fsr1h	equ	0x3FE2
  7695                           fsr1l	equ	0x3FE1
  7696                           bsr	equ	0x3FE0
  7697                           indf2	equ	0x3FDF
  7698                           postinc2	equ	0x3FDE
  7699                           postdec2	equ	0x3FDD
  7700                           preinc2	equ	0x3FDC
  7701                           plusw2	equ	0x3FDB
  7702                           fsr2h	equ	0x3FDA
  7703                           fsr2l	equ	0x3FD9
  7704                           status	equ	0x3FD8

Data Sizes:
    Strings     91
    Constant    5
    Data        70
    BSS         385
    Persistent  14
    Stack       0

Auto Spaces:
    Space          Size  Autos    Used
    COMRAM           95     50      83
    BANK0           160     11      92
    BANK1           256     78     227
    BANK2           256      0     206
    BANK3           256      0       0
    BANK4           256      0       0
    BANK5           256      0       0
    BANK6           256      0       0
    BANK7           256      0       0
    BANK8           256      0       0
    BANK9           256      0       0
    BANK10          256      0       0
    BANK11          256      0       0
    BANK12          256      0       0
    BANK13          256      0       0
    BANK14          256      0       0
    BANK15          256      0       0

Pointer List with Targets:

    InitializeFIFO@targetFIFO.readBuffer	PTR unsigned char  size(2) Largest target is 208
		 -> struct_eusart1(BANK2[206]), 

    InitializeFIFO@targetFIFO.writeBuffer	PTR unsigned char  size(2) Largest target is 208
		 -> struct_eusart1(BANK2[206]), 

    InitializeFIFO@targetFIFO	PTR struct FIFO_t size(2) Largest target is 208
		 -> struct_eusart1(BANK2[206]), 

    statusFIFO@targetFIFO.readBuffer	PTR unsigned char  size(2) Largest target is 208
		 -> struct_eusart1(BANK2[206]), 

    statusFIFO@targetFIFO.writeBuffer	PTR unsigned char  size(2) Largest target is 208
		 -> struct_eusart1(BANK2[206]), 

    statusFIFO@targetFIFO	PTR struct FIFO_t size(2) Largest target is 208
		 -> struct_eusart1(BANK2[206]), 

    checkBoundaries@targetFIFO.readBuffer	PTR unsigned char  size(2) Largest target is 208
		 -> struct_eusart1(BANK2[206]), 

    checkBoundaries@targetFIFO.writeBuffer	PTR unsigned char  size(2) Largest target is 208
		 -> struct_eusart1(BANK2[206]), 

    checkBoundaries@targetFIFO	PTR struct FIFO_t size(2) Largest target is 208
		 -> struct_eusart1(BANK2[206]), 

    checkBoundaries@bufferPointer	PTR PTR unsigned char  size(2) Largest target is 208
		 -> struct_eusart1(BANK2[206]), 

    popData@targetFIFO.readBuffer	PTR unsigned char  size(2) Largest target is 208
		 -> struct_eusart1(BANK2[206]), 

    popData@targetFIFO.writeBuffer	PTR unsigned char  size(2) Largest target is 208
		 -> struct_eusart1(BANK2[206]), 

    popData@targetFIFO	PTR struct FIFO_t size(2) Largest target is 208
		 -> struct_eusart1(BANK2[206]), 

    pushInteger@targetFIFO.readBuffer	PTR unsigned char  size(2) Largest target is 208
		 -> struct_eusart1(BANK2[206]), 

    pushInteger@targetFIFO.writeBuffer	PTR unsigned char  size(2) Largest target is 208
		 -> struct_eusart1(BANK2[206]), 

    pushString@targetFIFO.readBuffer	PTR unsigned char  size(2) Largest target is 208
		 -> struct_eusart1(BANK2[206]), 

    pushString@targetFIFO.writeBuffer	PTR unsigned char  size(2) Largest target is 208
		 -> struct_eusart1(BANK2[206]), 

    pushString@targetFIFO	PTR struct FIFO_t size(2) Largest target is 208
		 -> struct_eusart1(BANK2[206]), 

    pushString@newString	PTR unsigned char  size(2) Largest target is 15
		 -> STR_12(CODE[15]), STR_11(CODE[15]), STR_10(CODE[13]), STR_9(CODE[10]), 
		 -> STR_8(CODE[11]), STR_7(CODE[11]), STR_6(CODE[11]), send_Fs(BANK0[4]), 
		 -> send_result(BANK0[3]), STR_5(CODE[11]), 

    send_uart@str	PTR unsigned char  size(2) Largest target is 9
		 -> STR_4(CODE[9]), STR_3(CODE[9]), STR_2(CODE[9]), STR_1(CODE[9]), 

    FIR_pointer_sim@num	PTR short  size(2) Largest target is 16
		 -> FIR_num_sim(BANK1[16]), 

    FIR_pointer_sim@in	PTR short  size(2) Largest target is 32
		 -> main@in_values_1(BANK1[32]), main@in_values_0(BANK1[32]), 

    reorder_array_pt@arr	PTR short  size(2) Largest target is 32
		 -> main@in_values_1(BANK1[32]), main@in_values_0(BANK1[32]), 

    reorder_array_pt@ptr	PTR short  size(2) Largest target is 32
		 -> main@in_values_1(BANK1[32]), main@in_values_0(BANK1[32]), 

    main@pt_FIR_num_sim	PTR short  size(2) Largest target is 16
		 -> FIR_num_sim(BANK1[16]), 

    main@pt_FIR_num	PTR short  size(2) Largest target is 32
		 -> FIR_num(BANK1[32]), 

    main@pt_in_values_1	PTR short  size(2) Largest target is 32
		 -> main@in_values_1(BANK1[32]), 

    main@pt_in_values_0	PTR short  size(2) Largest target is 32
		 -> main@in_values_0(BANK1[32]), 

    eusart1	PTR struct FIFO_t size(2) Largest target is 208
		 -> struct_eusart1(BANK2[206]), 

    S1746FIFO_t$readBuffer	PTR unsigned char  size(2) Largest target is 208
		 -> struct_eusart1(BANK2[206]), 

    struct_eusart1.readBuffer	PTR unsigned char  size(2) Largest target is 208
		 -> struct_eusart1(BANK2[206]), 

    S1746FIFO_t$writeBuffer	PTR unsigned char  size(2) Largest target is 208
		 -> struct_eusart1(BANK2[206]), 

    struct_eusart1.writeBuffer	PTR unsigned char  size(2) Largest target is 208
		 -> struct_eusart1(BANK2[206]), 

    TMR4_SetInterruptHandler@InterruptHandler	PTR FTN()void  size(2) Largest target is 1
		 -> TMR4_DefaultInterruptHandler(), 

    TMR4_InterruptHandler	PTR FTN()void  size(2) Largest target is 1
		 -> NULL(), TMR4_DefaultInterruptHandler(), 

    TMR2_SetInterruptHandler@InterruptHandler	PTR FTN()void  size(2) Largest target is 1
		 -> TMR2_DefaultInterruptHandler(), 

    TMR2_InterruptHandler	PTR FTN()void  size(2) Largest target is 1
		 -> NULL(), TMR2_DefaultInterruptHandler(), 

    UART1_SetTxInterruptHandler@InterruptHandler	PTR FTN()void  size(2) Largest target is 1
		 -> UART1_Transmit_ISR(), 

    UART1_TxInterruptHandler	PTR FTN()void  size(2) Largest target is 1
		 -> NULL(), UART1_Transmit_ISR(), 

    UART1_SetRxInterruptHandler@InterruptHandler	PTR FTN()void  size(2) Largest target is 1
		 -> UART1_Receive_ISR(), 

    UART1_RxInterruptHandler	PTR FTN()void  size(2) Largest target is 1
		 -> NULL(), UART1_Receive_ISR(), 

    UART1_SetErrorHandler@interruptHandler	PTR FTN()void  size(2) Largest target is 1
		 -> UART1_DefaultErrorHandler(), 

    UART1_SetOverrunErrorHandler@interruptHandler	PTR FTN()void  size(2) Largest target is 1
		 -> UART1_DefaultOverrunErrorHandler(), 

    UART1_SetFramingErrorHandler@interruptHandler	PTR FTN()void  size(2) Largest target is 1
		 -> UART1_DefaultFramingErrorHandler(), 

    UART1_ErrorHandler	PTR FTN()void  size(2) Largest target is 1
		 -> NULL(), UART1_DefaultErrorHandler(), 

    UART1_OverrunErrorHandler	PTR FTN()void  size(2) Largest target is 1
		 -> NULL(), UART1_DefaultOverrunErrorHandler(), 

    UART1_FramingErrorHandler	PTR FTN()void  size(2) Largest target is 1
		 -> NULL(), UART1_DefaultFramingErrorHandler(), 


Critical Paths under _main in COMRAM

    _main->_FIR_pointer_sim
    _send_uart->_UART1_Write
    _send_6F->_UART1_Write
    _pushString->_checkBoundaries
    _popData->_checkBoundaries
    _get_page->_UART1_Write
    _get_gain->_UART1_Write
    _UART1_Initialize->_UART1_SetErrorHandler
    _UART1_Initialize->_UART1_SetFramingErrorHandler
    _UART1_Initialize->_UART1_SetOverrunErrorHandler
    _UART1_Initialize->_UART1_SetRxInterruptHandler
    _UART1_Initialize->_UART1_SetTxInterruptHandler
    _TMR4_Initialize->_TMR4_SetInterruptHandler
    _TMR2_Initialize->_TMR2_SetInterruptHandler
    _FIR_pointer_sim->___lmul

Critical Paths under _INTERRUPT_InterruptManager in COMRAM

    _INTERRUPT_InterruptManager->_TMR2_ISR
    _TMR2_ISR->_ADCC_GetSingleConversion

Critical Paths under _main in BANK0

    _main->_FIR_pointer_sim

Critical Paths under _INTERRUPT_InterruptManager in BANK0

    None.

Critical Paths under _main in BANK1

    None.

Critical Paths under _INTERRUPT_InterruptManager in BANK1

    None.

Critical Paths under _main in BANK2

    None.

Critical Paths under _INTERRUPT_InterruptManager in BANK2

    None.

Critical Paths under _main in BANK3

    None.

Critical Paths under _INTERRUPT_InterruptManager in BANK3

    None.

Critical Paths under _main in BANK4

    None.

Critical Paths under _INTERRUPT_InterruptManager in BANK4

    None.

Critical Paths under _main in BANK5

    None.

Critical Paths under _INTERRUPT_InterruptManager in BANK5

    None.

Critical Paths under _main in BANK6

    None.

Critical Paths under _INTERRUPT_InterruptManager in BANK6

    None.

Critical Paths under _main in BANK7

    None.

Critical Paths under _INTERRUPT_InterruptManager in BANK7

    None.

Critical Paths under _main in BANK8

    None.

Critical Paths under _INTERRUPT_InterruptManager in BANK8

    None.

Critical Paths under _main in BANK9

    None.

Critical Paths under _INTERRUPT_InterruptManager in BANK9

    None.

Critical Paths under _main in BANK10

    None.

Critical Paths under _INTERRUPT_InterruptManager in BANK10

    None.

Critical Paths under _main in BANK11

    None.

Critical Paths under _INTERRUPT_InterruptManager in BANK11

    None.

Critical Paths under _main in BANK12

    None.

Critical Paths under _INTERRUPT_InterruptManager in BANK12

    None.

Critical Paths under _main in BANK13

    None.

Critical Paths under _INTERRUPT_InterruptManager in BANK13

    None.

Critical Paths under _main in BANK14

    None.

Critical Paths under _INTERRUPT_InterruptManager in BANK14

    None.

Critical Paths under _main in BANK15

    None.

Critical Paths under _INTERRUPT_InterruptManager in BANK15

    None.

Call Graph Tables:

 ---------------------------------------------------------------------------------
 (Depth) Function   	        Calls       Base Space   Used Autos Params    Refs
 ---------------------------------------------------------------------------------
 (0) _main                                                86    86      0   14600
                                              6 BANK0      5     5      0
                                              0 BANK1     78    78      0
                    _FIR_pointer_sim
                     _InitializeFIFO
                  _SPI1_ExchangeByte
                          _SPI1_Open
                  _SYSTEM_Initialize
                         _UART1_Read
                        _UART1_Write
                             _abs_16
                  _categorize_number
                           _get_gain
                           _get_page
                            _popData
                         _pushString
                   _reorder_array_pt
                            _send_6F
                          _send_uart
                         _statusFIFO
 ---------------------------------------------------------------------------------
 (1) _statusFIFO                                           2     0      2     121
                                              9 COMRAM     2     0      2
 ---------------------------------------------------------------------------------
 (1) _send_uart                                            8     4      4     912
                                             10 COMRAM     8     4      4
                        _UART1_Write
 ---------------------------------------------------------------------------------
 (1) _send_6F                                              0     0      0      62
                        _UART1_Write
 ---------------------------------------------------------------------------------
 (1) _reorder_array_pt                                    12     8      4     589
                                              9 COMRAM    12     8      4
 ---------------------------------------------------------------------------------
 (1) _pushString                                          11     7      4    5132
                                             17 COMRAM     9     5      4
                    _checkBoundaries
 ---------------------------------------------------------------------------------
 (1) _popData                                              7     5      2    1163
                                             17 COMRAM     7     5      2
                    _checkBoundaries
 ---------------------------------------------------------------------------------
 (2) _checkBoundaries                                      8     4      4     695
                                              9 COMRAM     8     4      4
 ---------------------------------------------------------------------------------
 (1) _get_page                                             2     2      0      62
                                             10 COMRAM     2     2      0
                        _UART1_Write
 ---------------------------------------------------------------------------------
 (1) _get_gain                                             2     2      0      62
                                             10 COMRAM     2     2      0
                        _UART1_Write
 ---------------------------------------------------------------------------------
 (2) _UART1_Write                                          1     1      0      62
                                              9 COMRAM     1     1      0
 ---------------------------------------------------------------------------------
 (1) _categorize_number                                   26    25      1    1628
                                              9 COMRAM    26    25      1
 ---------------------------------------------------------------------------------
 (1) _abs_16                                               6     4      2     673
                                              9 COMRAM     6     4      2
 ---------------------------------------------------------------------------------
 (1) _UART1_Read                                           1     1      0      37
                                              9 COMRAM     1     1      0
 ---------------------------------------------------------------------------------
 (1) _SYSTEM_Initialize                                    0     0      0     847
                    _ADCC_Initialize
                     _FVR_Initialize
               _INTERRUPT_Initialize
              _OSCILLATOR_Initialize
             _PIN_MANAGER_Initialize
                     _PMD_Initialize
                    _SPI1_Initialize
                    _TMR2_Initialize
                    _TMR4_Initialize
                   _UART1_Initialize
 ---------------------------------------------------------------------------------
 (2) _UART1_Initialize                                     0     0      0     605
              _UART1_SetErrorHandler
       _UART1_SetFramingErrorHandler
       _UART1_SetOverrunErrorHandler
        _UART1_SetRxInterruptHandler
        _UART1_SetTxInterruptHandler
 ---------------------------------------------------------------------------------
 (3) _UART1_SetTxInterruptHandler                          2     0      2     121
                                              9 COMRAM     2     0      2
 ---------------------------------------------------------------------------------
 (3) _UART1_SetRxInterruptHandler                          2     0      2     121
                                              9 COMRAM     2     0      2
 ---------------------------------------------------------------------------------
 (3) _UART1_SetOverrunErrorHandler                         2     0      2     121
                                              9 COMRAM     2     0      2
 ---------------------------------------------------------------------------------
 (3) _UART1_SetFramingErrorHandler                         2     0      2     121
                                              9 COMRAM     2     0      2
 ---------------------------------------------------------------------------------
 (3) _UART1_SetErrorHandler                                2     0      2     121
                                              9 COMRAM     2     0      2
 ---------------------------------------------------------------------------------
 (2) _TMR4_Initialize                                      0     0      0     121
           _TMR4_SetInterruptHandler
 ---------------------------------------------------------------------------------
 (3) _TMR4_SetInterruptHandler                             2     0      2     121
                                              9 COMRAM     2     0      2
 ---------------------------------------------------------------------------------
 (2) _TMR2_Initialize                                      0     0      0     121
           _TMR2_SetInterruptHandler
 ---------------------------------------------------------------------------------
 (3) _TMR2_SetInterruptHandler                             2     0      2     121
                                              9 COMRAM     2     0      2
 ---------------------------------------------------------------------------------
 (2) _SPI1_Initialize                                      0     0      0       0
 ---------------------------------------------------------------------------------
 (2) _PMD_Initialize                                       0     0      0       0
 ---------------------------------------------------------------------------------
 (2) _PIN_MANAGER_Initialize                               0     0      0       0
 ---------------------------------------------------------------------------------
 (2) _OSCILLATOR_Initialize                                0     0      0       0
 ---------------------------------------------------------------------------------
 (2) _INTERRUPT_Initialize                                 0     0      0       0
 ---------------------------------------------------------------------------------
 (2) _FVR_Initialize                                       0     0      0       0
 ---------------------------------------------------------------------------------
 (2) _ADCC_Initialize                                      0     0      0       0
 ---------------------------------------------------------------------------------
 (1) _SPI1_Open                                            2     2      0     155
                                              9 COMRAM     2     2      0
 ---------------------------------------------------------------------------------
 (1) _SPI1_ExchangeByte                                    1     1      0      31
                                              9 COMRAM     1     1      0
 ---------------------------------------------------------------------------------
 (1) _InitializeFIFO                                       2     0      2     276
                                              9 COMRAM     2     0      2
 ---------------------------------------------------------------------------------
 (1) _FIR_pointer_sim                                     35    26      9    2016
                                             21 COMRAM    29    20      9
                                              0 BANK0      6     6      0
                             ___lmul
 ---------------------------------------------------------------------------------
 (2) ___lmul                                              12     4      8     636
                                              9 COMRAM    12     4      8
 ---------------------------------------------------------------------------------
 Estimated maximum stack depth 3
 ---------------------------------------------------------------------------------
 (Depth) Function   	        Calls       Base Space   Used Autos Params    Refs
 ---------------------------------------------------------------------------------
 (4) _INTERRUPT_InterruptManager                           2     2      0      22
                                              7 COMRAM     2     2      0
                                NULL *
                           _TMR2_ISR
                           _TMR4_ISR
                  _UART1_Receive_ISR *
                 _UART1_Transmit_ISR *
 ---------------------------------------------------------------------------------
 (5) _UART1_Transmit_ISR                                   0     0      0       0
 ---------------------------------------------------------------------------------
 (5) _UART1_Receive_ISR                                    0     0      0       0
                                NULL *
          _UART1_DefaultErrorHandler *
   _UART1_DefaultFramingErrorHandler *
   _UART1_DefaultOverrunErrorHandler *
                _UART1_RxDataHandler
 ---------------------------------------------------------------------------------
 (6) _UART1_DefaultOverrunErrorHandler                     0     0      0       0
 ---------------------------------------------------------------------------------
 (6) _UART1_DefaultFramingErrorHandler                     0     0      0       0
 ---------------------------------------------------------------------------------
 (6) _UART1_DefaultErrorHandler                            0     0      0       0
                _UART1_RxDataHandler
 ---------------------------------------------------------------------------------
 (6) _UART1_RxDataHandler                                  0     0      0       0
 ---------------------------------------------------------------------------------
 (6) NULL(Fake)                                            0     0      0       0
 ---------------------------------------------------------------------------------
 (5) _TMR4_ISR                                             0     0      0       0
 ---------------------------------------------------------------------------------
 (5) _TMR2_ISR                                             2     2      0      22
                                              5 COMRAM     2     2      0
           _ADCC_GetSingleConversion
 ---------------------------------------------------------------------------------
 (6) _ADCC_GetSingleConversion                             5     3      2      22
                                              0 COMRAM     5     3      2
 ---------------------------------------------------------------------------------
 Estimated maximum stack depth 6
 ---------------------------------------------------------------------------------

 Call Graph Graphs:

 _main (ROOT)
   _FIR_pointer_sim
     ___lmul
   _InitializeFIFO
   _SPI1_ExchangeByte
   _SPI1_Open
   _SYSTEM_Initialize
     _ADCC_Initialize
     _FVR_Initialize
     _INTERRUPT_Initialize
     _OSCILLATOR_Initialize
     _PIN_MANAGER_Initialize
     _PMD_Initialize
     _SPI1_Initialize
     _TMR2_Initialize
       _TMR2_SetInterruptHandler
     _TMR4_Initialize
       _TMR4_SetInterruptHandler
     _UART1_Initialize
       _UART1_SetErrorHandler
       _UART1_SetFramingErrorHandler
       _UART1_SetOverrunErrorHandler
       _UART1_SetRxInterruptHandler
       _UART1_SetTxInterruptHandler
   _UART1_Read
   _UART1_Write
   _abs_16
   _categorize_number
   _get_gain
     _UART1_Write
   _get_page
     _UART1_Write
   _popData
     _checkBoundaries
   _pushString
     _checkBoundaries
   _reorder_array_pt
   _send_6F
     _UART1_Write
   _send_uart
     _UART1_Write
   _statusFIFO

 _INTERRUPT_InterruptManager (ROOT)
   NULL(Fake) *
   _TMR2_ISR *
     _ADCC_GetSingleConversion
   _TMR4_ISR *
   _UART1_Receive_ISR *
     NULL(Fake) *
     _UART1_DefaultErrorHandler *
       _UART1_RxDataHandler
     _UART1_DefaultFramingErrorHandler *
     _UART1_DefaultOverrunErrorHandler *
     _UART1_RxDataHandler *
   _UART1_Transmit_ISR *

 Address spaces:
Name               Size   Autos  Total    Cost      Usage
BIGRAM             FFF      0       0      73        0.0%
EEDATA             400      0       0       0        0.0%
BITBIGSFRlhhhhl    22A      0       0      51        0.0%
BITBIGSFRllllll    193      0       0      71        0.0%
BITBANK15          100      0       0      34        0.0%
BANK15             100      0       0      35        0.0%
BITBANK14          100      0       0      32        0.0%
BANK14             100      0       0      33        0.0%
BITBANK13          100      0       0      30        0.0%
BANK13             100      0       0      31        0.0%
BITBANK12          100      0       0      28        0.0%
BANK12             100      0       0      29        0.0%
BITBANK11          100      0       0      26        0.0%
BANK11             100      0       0      27        0.0%
BITBANK10          100      0       0      24        0.0%
BANK10             100      0       0      25        0.0%
BITBANK9           100      0       0      22        0.0%
BANK9              100      0       0      23        0.0%
BITBANK8           100      0       0      20        0.0%
BANK8              100      0       0      21        0.0%
BITBANK7           100      0       0      18        0.0%
BANK7              100      0       0      19        0.0%
BITBANK6           100      0       0      16        0.0%
BANK6              100      0       0      17        0.0%
BITBANK5           100      0       0      14        0.0%
BANK5              100      0       0      15        0.0%
BITBANK4           100      0       0      12        0.0%
BANK4              100      0       0      13        0.0%
BITBANK3           100      0       0      10        0.0%
BANK3              100      0       0      11        0.0%
BITBANK2           100      0       0       8        0.0%
BANK2              100      0      CE       9       80.5%
BITBANK1           100      0       0       6        0.0%
BANK1              100     4E      E3       7       88.7%
BITBIGSFRlhhhhh     CB      0       0      47        0.0%
BITBIGSFRlhhhhh     C6      0       0      44        0.0%
BITBANK0            A0      0       0       4        0.0%
BANK0               A0      B      5C       5       57.5%
BITBIGSFRhllhhh     9E      0       0      41        0.0%
BITCOMRAM           5F      0       0       0        0.0%
COMRAM              5F     32      53       1       87.4%
BITBIGSFRlhhl       59      0       0      53        0.0%
BITBIGSFRllllll     33      0       0      63        0.0%
BITBIGSFRhhhh       2D      0       0      36        0.0%
BITBIGSFRlllllh     29      0       0      61        0.0%
BITBIGSFRhlll       1C      0       0      43        0.0%
BITBIGSFRllllll     18      0       0      67        0.0%
BITBIGSFRllllll     11      0       0      66        0.0%
BITBIGSFRllllh       B      0       0      60        0.0%
BITBIGSFRhhhl        B      0       0      37        0.0%
BITBIGSFRhllhhh      A      0       0      39        0.0%
BITBIGSFRllllll      A      0       0      69        0.0%
BITBIGSFRhllhhh      6      0       0      40        0.0%
BITBIGSFRlhhhl       5      0       0      52        0.0%
BITBIGSFRlllhl       5      0       0      59        0.0%
BITBIGSFRllhl        5      0       0      57        0.0%
BITBIGSFRlhll        5      0       0      55        0.0%
BITBIGSFRlhlh        4      0       0      54        0.0%
BITBIGSFRllhh        4      0       0      56        0.0%
BITBIGSFRlllhh       4      0       0      58        0.0%
BITBIGSFRhhll        3      0       0      38        0.0%
BITBIGSFRllllll      2      0       0      70        0.0%
BITBIGSFRllllll      2      0       0      68        0.0%
BITBIGSFRlhhhhh      2      0       0      48        0.0%
BITBIGSFRlhhhhh      2      0       0      49        0.0%
BITBIGSFRllllll      1      0       0      64        0.0%
BITBIGSFRllllll      1      0       0      65        0.0%
BITBIGSFRlhhhhh      1      0       0      46        0.0%
BITBIGSFRlhhhhh      1      0       0      45        0.0%
BITBIGSFRhllhhh      1      0       0      42        0.0%
BITBIGSFRlhhhhl      1      0       0      50        0.0%
BITBIGSFRlllllh      1      0       0      62        0.0%
BIGSFR               0      0       0     200        0.0%
BITSFR_8             0      0       0     200        0.0%
SFR_8                0      0       0     200        0.0%
BITSFR_7             0      0       0     200        0.0%
SFR_7                0      0       0     200        0.0%
BITSFR_6             0      0       0     200        0.0%
SFR_6                0      0       0     200        0.0%
BITSFR_5             0      0       0     200        0.0%
SFR_5                0      0       0     200        0.0%
BITSFR_4             0      0       0     200        0.0%
SFR_4                0      0       0     200        0.0%
BITSFR_3             0      0       0     200        0.0%
SFR_3                0      0       0     200        0.0%
BITSFR_2             0      0       0     200        0.0%
SFR_2                0      0       0     200        0.0%
BITSFR_1             0      0       0     200        0.0%
SFR_1                0      0       0     200        0.0%
BITSFR               0      0       0     200        0.0%
SFR                  0      0       0     200        0.0%
STACK                0      0       0       2        0.0%
NULL                 0      0       0       0        0.0%
ABS                  0      0     260      72        0.0%
DATA                 0      0     260       3        0.0%
CODE                 0      0       0       0        0.0%


Microchip Technology PIC18 Macro Assembler V2.41 build 20230208172133 
Symbol Table                                                                                   Thu Nov 23 16:41:10 2023

                           _SPI1_ExchangeByte 2DB8              __end_of_TMR2_SetInterruptHandler 2E88  
                                           l7 2E8E                            main@pt_in_values_0 0144  
                          main@pt_in_values_1 0146                            ?_SPI1_ExchangeByte 0001  
                      __end_of_FVR_Initialize 2E90                            main@pt_FIR_num_sim 0148  
                                         l107 271C                                           l141 240A  
                                         l150 2DDA                                           l137 2DF4  
                                         l147 2DC6                                           l149 2DD6  
                                         l430 27C0                                           l256 2AF2  
                                         l524 2E9C                                           l454 2A4E  
                                         l455 2A68                                           l449 2B96  
                                         l490 2E5E                                           l458 2A96  
                                         l707 2E86                                           l493 2E72  
                                         l590 2D92                                           l487 2E68  
                                         l496 2E54                                           l593 2E0C  
                                         l649 2D3C                                           l747 2D10  
                                         l499 2E4A                                           l596 2DB6  
                                         l951 1586                                           l971 1600  
                                         l789 2E7C                                           l966 1598  
                                         l967 1B12                                           l999 2970  
                                         _PR2 3FAB                                           _PR4 3F9F  
                         ??_SPI1_ExchangeByte 000A                               _TMR2_Initialize 2D12  
                                         tosl 3FFD                                           wreg 3FE8  
                          _UART1_Transmit_ISR 2C30                                   main@digitos 0100  
                                        l1006 1DE8                                          l1110 2048  
                                        l1023 28EA                                          l1111 20C8  
                                        l1032 2E20                                          l1035 2C0E  
                                        l1036 2C26                                          l1116 20CE  
                                        l1037 2C2E                                          l1029 2B44  
                                        l1150 29DA                                          l1135 222C  
                                        l1055 1F64                                          l1080 232E  
                           reorder_array_pt@i 0014                                          l1091 2BE6  
                                        l1149 29CA                                          l1085 2A3A  
                                        l1088 2E30                                          l4121 2E56  
                                        l4201 277C                                          l4131 2678  
                                        l4123 2E6A                                          l4115 2E4C  
                                        l4203 2788                                          l4211 2A3E  
                                        l4141 26AA                                          l4133 2690  
                                        l4125 2E7E                                          l4117 2E42  
                                        l4205 2794                                          l4221 2A8E  
                                        l4213 2A5E                                          l4231 2DF6  
                                        l4151 26F8                                          l4143 26EC  
                                        l4135 2692                                          l4127 2E74  
                                        l4119 2E60                                          l4207 27BC  
                                        l4311 2D7A                                          l4303 2D6A  
                                        l4223 2A92                                          l4215 2A6A  
                                        l4129 2E88                                          l4153 26FA  
                                        l4145 26EE                                          l4137 269C  
                                        l4161 2DF2                                          l4241 2D0C  
                                        l4233 2CE6                                          l4321 2D8E  
                                        l4313 2D7E                                          l4305 2D6E  
                                        l4217 2A7C                                          l4225 2A94  
                                        l4209 2A3E                                          l5041 21AE  
                                        l4323 2B98                                          l4163 2A98  
                                        l4227 2E9A                                          l4155 26FC  
                                        l4147 26F0                                          l4139 26A4  
                                        l4251 2D38                                          l4243 2D12  
                                        l4235 2CFA                                          l4171 273E  
                                        l4315 2D82                                          l4307 2D72  
                                        l4219 2A7E                                          l4411 1FEC  
                                        l4403 1FD2                                          l4331 2B26  
                                        l4261 2982                                          l4341 1D24  
                                        l4157 26FE                                          l4149 26F2  
                                        l4229 2D94                                          l4245 2D26  
                                        l4237 2CFE                                          l4181 2754  
                                        l4173 2744                                          l4165 271E  
                                        l4317 2D86                                          l4309 2D76  
                                        l4501 2192                                          l4421 2040  
                                        l4413 1FFE                                          l4253 29DC  
                                        l4333 2E0E                                          l4325 2AF4  
                                        l4263 2990                                          l4343 1D42  
                                        l4335 1C1E                                          l4271 2342  
                                        l4159 2DDC                                          l4247 2D2A  
                                        l4239 2D00                                          l4191 2768  
                                        l4183 2758                                          l4175 2748  
                                        l4167 2722                                          l4319 2D8A  
                                        l4511 2BE8                                          l4431 20CA  
                                        l5039 206A                                          l4415 2010  
                                        l4407 1FDC                                          l4255 2A0C  
                                        l4351 28EC                                          l4327 2B00  
                                        l4265 29A0                                          l4345 1D52  
                                        l4337 1C3C                                          l4273 2408  
                                        l4249 2D2C                                          l4193 276C  
                                        l4185 275C                                          l4177 274C  
                                        l4169 272E                                          l4281 2B46  
                                        l4513 2BE8                                          l4433 20D0  
                                        l4505 2198                                          l4417 2022  
                                        l4409 1FE2                                          l4425 2054  
                                        l4257 2A28                                          l4521 1DF2  
                                        l4361 2962                                          l4329 2B22  
                                        l4267 29AA                                          l4259 2972  
                                        l4347 1DE0                                          l4339 1D20  
                                        l4195 2770                                          l4187 2760  
                                        l4179 2750                                          l4291 2B88  
                                        l4283 2B46                                          l4515 2C02  
                                        l4451 2106                                          l4443 20F2  
                                        l4435 20DA                                          l4419 2034  
                                        l4371 1F82                                          l4363 1F66  
                                        l4531 1EA8                                          l4523 1E4E  
                                        l4355 2930                                          l4611 107A  
                                        l4277 2DBA                                          l4269 2332  
                                        l4197 2774                                          l4189 2764  
                                        l4293 2B8C                                          l4285 2B56  
                                        l4541 2866                                          l4437 20E0  
                                        l4365 1F6A                                          l4533 1EC4  
                                        l4525 1E50                                          l4517 1DEA  
                                        l4357 2954                                          l4701 1332  
                                        l4621 1096                                          l4613 1086  
                                        l4605 1062                                          l4279 2DC0  
                                        l4199 2778                                          l4295 2B90  
                                        l4287 2B76                                          l4551 28B2  
                                        l4543 287A                                          l4471 2138  
                                        l4463 2124                                          l4455 2110  
                                        l4447 20FC                                          l4439 20E8  
                                        l4391 1FB4                                          l4383 1FA0  
                                        l4375 1F8C                                          l4367 1F74  
                                        l4535 1F0A                                          l4527 1E68  
                                        l4519 1DF2                                          l4359 295C  
                                        l4711 138A                                          l4703 1346  
                                        l4631 10C2                                          l4623 109E  
                                        l4615 108C                                          l4607 1066  
                                        l4297 2B92                                          l4289 2B78  
                                        l4553 28C8                                          l4545 288A  
                                        l4369 1F7A                                          l4537 1F3A  
                                        l4529 1E78                                          l4801 16D4  
                                        l4721 13E2                                          l4713 139E  
                                        l4705 135A                                          l4641 10D2  
                                        l4633 10CA                                          l4625 10A0  
                                        l4617 108E                                          l4609 1078  
                                        l4299 2B94                                          l4555 28D4  
                                        l4547 2896                                          l4491 216A  
                                        l4483 2156                                          l4475 2142  
                                        l4467 212E                                          l4459 211A  
                                        l4395 1FBE                                          l4387 1FAA  
                                        l4379 1F96                                          l4571 2262  
                                        l4539 1F56                                          l4563 2E22  
                                        l4811 173C                                          l4803 16FC  
                                        l4731 143A                                          l4723 13F6  
                                        l4715 13B2                                          l4707 136E  
                                        l4651 110A                                          l4643 10DA  
                                        l4635 10CA                                          l4627 10AC  
                                        l4619 1090                                          l4557 28D8  
                                        l4549 289E                                          l4493 2170  
                                        l4581 2300                                          l4573 227E  
                                        l4901 1B22                                          l4813 1766  
                                        l4805 1700                                          l4821 17BE  
                                        l4741 1492                                          l4733 144E  
                                        l4725 140A                                          l4717 13C6  
                                        l4709 1376                                          l4661 114E  
                                        l4653 111E                                          l4645 10EE  
                                        l4637 10D2                                          l4629 10B8  
                                        l4559 28E8                                          l4495 217A  
                                        l4487 2160                                          l4479 214C  
                                        l4399 1FC8                                          l4583 231C  
                                        l4575 22A6                                          l4567 222E  
                                        l4911 1B82                                          l4903 1B4A  
                                        l4831 1840                                          l4823 17D2  
                                        l4815 178E                                          l4807 1714  
                                        l4751 14EA                                          l4743 14A6  
                                        l4735 1462                                          l4727 141E  
                                        l4719 13CE                                          l4671 121E  
                                        l4663 1156                                          l4655 1122  
                                        l4647 10F2                                          l4639 10D2  
                                        l4497 2182                                          l4585 232C  
                                        l4577 22C2                                          l4569 2232  
                                        l4921 1BDE                                          l4913 1B9E  
                                        l4905 1B4E                                          l4841 18BE  
                                        l4833 1854                                          l4825 17E6  
                                        l4817 1792                                          l4809 1728  
                                        l4761 1542                                          l4753 14FE  
                                        l4745 14BA                                          l4737 1476  
                                        l4729 1426                                          l4681 1292  
                                        l4673 1232                                          l4665 118C  
                                        l4657 1136                                          l4649 1106  
                                        l4499 218A                                          l4579 22D0  
                                        l4923 1BEE                                          l4915 1BB2  
                                        l4907 1B6A                                          l4851 193C  
                                        l4843 18D2                                          l4835 187E  
                                        l4827 17FA                                          l4819 17A6  
                                        l4771 1588                                          l4763 1556  
                                        l4755 1512                                          l4747 14CE  
                                        l4739 147E                                          l4691 12DA  
                                        l4683 129A                                          l4675 123A  
                                        l4667 11E6                                          l4659 113A  
                                        l4925 1BFE                                          l4917 1BBE  
                                        l4909 1B72                                          l4853 1950  
                                        l4845 18E6                                          l4837 18A6  
                                        l4829 180E                                          l4781 15CA  
                                        l4773 158E                                          l4765 156A  
                                        l4757 1526                                          l4749 14D6  
                                        l4693 12EE                                          l4685 12AC  
                                        l4677 126A                                          l4669 11EE  
                                        l4927 1C10                                          l4919 1BCE  
                                        l4871 19F4                                          l4855 1964  
                                        l4847 1910                                          l4839 18AA  
                                        l4863 19A4                                          l4791 163C  
                                        l4783 15DC                                          l4775 1596  
                                        l4767 157E                                          l4759 152E  
                                        l4695 1302                                          l4687 12B4  
                                        l4679 127E                                          l4873 1A26  
                                        l4865 19B8                                          l4857 1978  
                                        l4849 1938                                          l4793 1650  
                                        l4785 15EE                                          l4769 1586  
                                        l4697 1316                                          l4689 12C6  
                                        l4777 15A6                                          l4891 1AE6  
                                        l4875 1A3E                                          l4867 19CC  
                                        l4859 198C                                          l4795 1664  
                                        l4787 1614                                          l4779 15B8  
                                        l4699 131E                                          l4877 1A52  
                                        l4869 19E0                                          l4797 1696  
                                        l4789 1628                                          l4879 1A7C  
                                        l4887 1AA8                                          l4799 16AA  
                                        l4889 1ABC                                          l4899 1B12  
                                        STR_1 1058                                          STR_2 1058  
                                        STR_3 1058                                          STR_4 1058  
                                        STR_5 1022                                          STR_6 102D  
                                        STR_7 1038                                          STR_8 1043  
                                        STR_9 104E                                   main@num16_0 014A  
                                 main@num16_1 014C                                          u3000 2262  
                                        u3001 225E                                          u3010 227E  
                                        u3011 227A                                          u3020 2300  
                                        u3021 22FC                                          _LATA 3FBA  
                                        u3030 231C                                          u3110 1292  
                                        _LATB 3FBB                                          u3031 2318  
                                        u3111 128E                                          _LATC 3FBC  
                                        u3200 135A                                          u3120 12AC  
                                        _LATD 3FBD                                          u3201 1356  
                                        u3121 12A8                                          u3105 11A2  
                                        _LATE 3FBE                                          u3210 136E  
                                        u3130 12C6                                          u3106 11AC  
                                        u3211 136A                                          u3131 12C2  
                                        u3107 11BC                                          u3300 143A  
                                        u3220 138A                                          u3140 12DA  
                                        u3301 1436                                          u3221 1386  
                                        u3141 12D6                                          u3061 10A6  
                                        u3310 144E                                          u3230 139E  
                                        u3150 12EE                                          u3311 144A  
                                        u3231 139A                                          u3151 12EA  
                                        u3071 10B2                                          u3400 1512  
                                        u3320 1462                                          u3240 13B2  
                                        u3160 1302                                          u3080 114E  
                                        u3401 150E                                          u3321 145E  
                                        u3241 13AE                                          u3161 12FE  
                                        u3081 114A                                          u3410 1526  
                                        u3330 1476                                          u3250 13C6  
                                        u3170 1316                                          _T2PR 3FAB  
                                        u3411 1522                                          u3331 1472  
                                        u3251 13C2                                          u3171 1312  
                                        u2700 2A4E                                          u3500 1600  
                                        u3420 1542                                          u3340 1492  
                                        u3260 13E2                                          u3180 1332  
                                        u2701 2A4A                                          u3501 15FC  
                                        u3421 153E                                          u3341 148E  
                                        u3261 13DE                                          u3181 132E  
                                        u2710 2A5E                                          u3510 1628  
                                        u3430 1556                                          u3350 14A6  
                                        u3270 13F6                                          u3190 1346  
                                        u2711 2A5A                                          u3511 1624  
                                        u3431 1552                                          u3351 14A2  
                                        u3271 13F2                                          u3191 1342  
                                        u3095 116A                                          u2720 2A8E  
                                        u2800 2B44                                          u3600 19CC  
                                        u3520 163C                                          u3440 156A  
                                        u3360 14BA                                          u3280 140A  
                                        u3096 1174                                          u2721 2A8A  
                                        u2801 2B40                                          u3601 19C8  
                                        u3521 1638                                          u3441 1566  
                                        u3361 14B6                                          u3281 1406  
                                        u3097 1184                                          u2810 1D42  
                                        u2730 2A0C                                          u3610 19E0  
                                        u3530 1650                                          u3450 157E  
                                        u3370 14CE                                          u3290 141E  
                                        _T4PR 3F9F                                          u2811 1D3E  
                                        u2731 2A08                                          u3611 19DC  
                                        u3531 164C                                          u3451 157A  
                                        u3371 14CA                                          u3291 141A  
                                        u2740 2990                                          u2820 1D52  
                                        u2900 1E4C                                          u3700 1BEE  
                                        u3620 19F4                                          u3540 1664  
                                        u3460 15B8                                          u3380 14EA  
                                        u2741 298C                                          u2821 1D4E  
                                        u3701 1BEA                                          u3621 19F0  
                                        u3541 1660                                          u3461 15B4  
                                        u3381 14E6                                          u2750 29CA  
                                        u2910 1EA8                                          u2830 292C  
                                        u3710 1BFE                                          u3630 1A3E  
                                        u3550 17D2                                          u3470 15CA  
                                        u3390 14FE                                          u2751 29C6  
                                        u2911 1EA4                                          u2831 2928  
                                        u3711 1BFA                                          u3631 1A3A  
                                        u3551 17CE                                          u3471 15C6  
                                        u3391 14FA                                          u2760 2342  
                                        u2920 1EC4                                          u2840 2970  
                                        u3720 1C10                                          u3640 1B22  
                                        u3560 17E6                                          u3480 15DC  
                                        u2761 233E                                          u2921 1EC0  
                                        u2841 296C                                          u3721 1C0C  
                                        u3641 1B1E                                          u3561 17E2  
                                        u3481 15D8                                          u2770 2DD6  
                                        u2850 1FFE                                          u2930 1EFA  
                                        u3650 1B6A                                          u3570 17FA  
                                        u3490 15EE                                          u2771 2DD2  
                                        u2851 1FFA                                          u2907 1E3E  
                                        u3651 1B66                                          u3571 17F6  
                                        u3491 15EA                                          u2780 2B56  
                                        u2860 2010                                          u2940 1F0A  
                                        u3660 1B82                                          u3580 180E  
                                        _PMD0 39C0                                          u2781 2B52  
                                        u2861 200C                                          u2941 1F06  
                                        u3661 1B7E                                          u3581 180A  
                                        _PMD1 39C1                                          u2790 2B88  
                                        u2870 2022                                          u2950 1F3A  
                                        u3670 1B9E                                          u3590 19B8  
                                        _PMD2 39C2                                          u2791 2B84  
                                        u2871 201E                                          u2951 1F36  
                                        u3671 1B9A                                          u3591 19B4  
                                        _PMD3 39C3                                          u2880 2034  
                                        u2960 1F56                                          u3680 1BB2  
                                        _PMD4 39C4                                          u2881 2030  
                                        u2961 1F52                                          u2937 1EEC  
                                        u3681 1BAE                                          _PMD5 39C5  
                                        u2890 2C02                                          u3690 1BDE  
                                        _PMD6 39C6                                          u2891 2BFE  
                                        u2971 2870                                          u3691 1BDA  
                                        _PMD7 39C7                                          u2980 288A  
                                        u2981 2886                                          u2990 28B2  
                                        u2991 28AE                                          _TMR2 3FAA  
                                        _TMR4 3F9E                                          _WPUA 3A41  
                                        _WPUB 3A51                                          _WPUC 3A61  
                                        _WPUD 3A71                                          _WPUE 3A81  
                         ?_UART1_Transmit_ISR 0001                                          _gain 00A8  
                                        _main 1062                                          fsr0h 3FEA  
                                        fsr1h 3FE2                                          indf0 3FEF  
                                        fsr2h 3FDA                                          fsr0l 3FE9  
                                        indf2 3FDF                                          fsr1l 3FE1  
                                        fsr2l 3FD9                                          prodh 3FF4  
                                        prodl 3FF3                                          start 001A  
                   __end_of_SPI1_ExchangeByte 2DDC                 ??_UART1_SetTxInterruptHandler 000C  
                  ??_TMR4_SetInterruptHandler 000C                                  ___param_bank 0000  
                            ?_FIR_pointer_sim 0016                                   ?_UART1_Read 0001  
                             ?_FVR_Initialize 0001                          ??_UART1_Transmit_ISR 0001  
               __end_of_OSCILLATOR_Initialize 2E0E                                         _ADACT 3EFE  
                                       _ADCAP 3EF5                                         ?_main 0001  
                                       _ADCLK 3EFF                                         _ADCNT 3EEB  
                                       _ADPCH 3EF1                                         _ADREF 3EFD  
                                       STR_10 1015                                         STR_11 1006  
                                       STR_12 1006                                         _ADRPT 3EEC  
            SPI1_Open@spi1UniqueConfiguration 000B                                         _U1P1H 3DED  
                                       _U1P2H 3DEF                                         _U1P3H 3DF1  
                                       _U1P1L 3DEC                                         _U1P2L 3DEE  
                                       _T2CON 3FAC                                         _U1P3L 3DF0  
                                       _T4CON 3FA0                                         _T2HLT 3FAD  
                                       _T4HLT 3FA1                                         _T2TMR 3FAA  
                                       _U1UIR 3DF8                                         _T2RST 3FAF  
                                       _U1RXB 3DE8                                         _U1TXB 3DEA  
                                       _T4TMR 3F9E                                         _T4RST 3FA3  
                                       i2l271 2CE4                                         i2l531 2562  
                                       i2l268 2CC4                                         i2l532 25AA  
                                       i2l461 2C6E                                         i2l533 2586  
                                       i2l471 2676                                         i2l704 24E2  
                                       i2l464 2C72                                         i2l481 2EA0  
                                       i2l537 25AA                                         i2l529 252A  
                                       i2l475 2D68                                         i2l484 2E94  
                                       i2l478 2EA2                                         i2l694 2414  
                                       i2l786 2E40                                         i2l699 2466  
                                       _OSCEN 39DD                                         _TRISA 3FC2  
                                       _TRISB 3FC3                                         _TRISC 3FC4  
                                       _TRISD 3FC5                                         _TRISE 3FC6  
                             _TMR4_Initialize 2CE6                           ___lmul@multiplicand 000E  
                              _state_get_gain 0035                              __end_of_TMR2_ISR 24E4  
                                       _adc_0 0041                                         _adc_1 003F  
                              _state_get_page 0037                              __end_of_TMR4_ISR 2E42  
                                       _ref_0 009E                                         _ref_1 009C  
                             __end_of_send_6F 2E22                              ?_checkBoundaries 000A  
                             __end_of_popData 2330                                         pclath 3FFA  
                                       pclatu 3FFB                                         tablat 3FF5  
                                       plusw1 3FE3                                         plusw2 3FDB  
                                       status 3FD8           __end_of_UART1_SetRxInterruptHandler 2E56  
                 _UART1_SetRxInterruptHandler 2E4C           fp__UART1_DefaultFramingErrorHandler 0000  
    __end_of_UART1_DefaultFramingErrorHandler 2EA4            ??_UART1_DefaultFramingErrorHandler 0001  
           ?_UART1_DefaultFramingErrorHandler 0001              _UART1_DefaultFramingErrorHandler 2EA2  
                             __initialization 27C2                                  __end_of_main 1C1E  
                 ??_UART1_DefaultErrorHandler 0001                     checkBoundaries@targetFIFO 000A  
                     __end_of_TMR2_Initialize 2D3E                   ?_INTERRUPT_InterruptManager 0001  
                                ?_UART1_Write 0001                      _TMR2_SetInterruptHandler 2E7E  
                                      ??_main 00B3                                 __activetblptr 0003  
                            _UART1_Initialize 271E                           reorder_array_pt@arr 000A  
                                      _ADACCH 3EE9                                        _ADACCL 3EE8  
                                      _ADACCU 3EEA                           reorder_array_pt@ptr 0012  
                                      _ADACQH 3EF4                                        _ADACQL 3EF3  
                                      _ADCON0 3EF8                                        _ADCON1 3EF9  
                                      _ADCON2 3EFA                                        _ADCON3 3EFB  
                                      _ADERRH 3EE3                                        _ADERRL 3EE2  
                                      _ADLTHH 3EDF                                        _ADLTHL 3EDE  
                                      _ADRESH 3EF0                                        _ADRESL 3EEF  
                                      _ADPREH 3EF7                                        _ADPREL 3EF6  
                                      _ADSTAT 3EFC                                        _ADUTHH 3EE1  
                                      _ADUTHL 3EE0                                        _ANSELA 3A40  
                                      _ANSELB 3A50                                        _ANSELC 3A60  
                                      _ANSELD 3A70                                        _ANSELE 3A80  
                                      _RB1I2C 3A5A                                        _RB2I2C 3A5B  
                                      _RD0I2C 3A7A                                        _U1CON0 3DF2  
                                      _U1CON1 3DF3                                        _U1CON2 3DF4  
                                      _RD1I2C 3A7B                                        _RC3I2C 3A6A  
                                      _RC4I2C 3A6B                                        _U1BRGH 3DF6  
                                      _U1FIFO 3DF7                                        _U1BRGL 3DF5  
                                      _RC3PPS 3A13                                        _RC5PPS 3A15  
                                      _ODCONA 3A42                                        _ODCONB 3A52  
                                      _RC6PPS 3A16                                        _ODCONC 3A62  
                                      _ODCOND 3A72                                        _ODCONE 3A82  
                                      i2l3101 2CB6                                        i2l3103 2CBC  
                                      i2l3105 2CC0                                        i2l3107 2CC2  
                                      i2l3051 2D3E                                        i2l3109 2CD2  
                                      i2l3301 245E                                        i2l3053 2D50  
                                      i2l3303 2468                                        i2l3311 24B2  
                                      i2l3055 2D52                                        i2l3313 24C8  
                                      i2l3305 2470                                        i2l3057 2D62  
                                      i2l3315 24DE                                        i2l3059 2D66  
                                      i2l3309 2478                                        i2l3261 2C64  
                                      i2l3253 2C30                                        i2l3175 2E90  
                                      i2l3271 25E6                                        i2l3263 2C68  
                                      i2l3255 2C40                                        i2l3281 2654  
                                      i2l3273 25FE                                        i2l3265 25B8  
                                      i2l3257 2C52                                        i2l5043 248C  
                                      i2l3291 2416                                        i2l3283 2672  
                                      i2l3275 260E                                        i2l3267 25C6  
                                      i2l3259 2C54                                        i2l3293 2424  
                                      i2l3285 2E32                                        i2l3277 261E  
                                      i2l3269 25D6                                        i2l3295 2436  
                                      i2l3287 2E36                                        i2l3279 2638  
                                      i2l3631 2538                                        i2l3297 243E  
                                      i2l3289 240C                                        i2l3641 25A2  
                                      i2l3633 2546                                        i2l3625 24F0  
                                      i2l3299 244C                                        i2l3635 2570  
                                      i2l3627 2500                                        i2l3637 257E  
                                      i2l3629 250E                                        i2l3639 2594  
                                      _INLVLA 3A44                                        _INLVLB 3A54  
                                      _INLVLC 3A64                                        _INLVLD 3A74  
                                      _INLVLE 3A84                                        _FVRCON 3EC1  
                                      _OSCFRQ 39DF                             ?_reorder_array_pt 000A  
                       _UART1_SetErrorHandler 2E6A                            ??_reorder_array_pt 000E  
                           __end_of_SPI1_Open 240C                              __end_of_get_gain 222E  
                            __end_of_get_page 20CA                                        _abs_16 2BE8  
                                      ___lmul 2972                       __end_of_TMR4_Initialize 2D12  
                                      clear_0 2828                                        clear_1 2834  
                                      clear_2 2840                                        clear_3 284C  
                           popData@targetFIFO 0012                                        isa$std 0001  
                             _ADCC_Initialize 2A98                  _TMR4_DefaultInterruptHandler 0000  
                              _PMD_Initialize 2D94                          categorize_number@sec 000A  
                        categorize_number@num 0022                                  __pdataCOMRAM 0052  
                           _categorize_number 2864                                     ??_send_6F 000B  
                                   ??_popData 0014                                  __mediumconst 0000  
                                      tblptrh 3FF7                                        tblptrl 3FF6  
                                      tblptru 3FF8                            ?_categorize_number 000A  
                   ?_ADCC_GetSingleConversion 0001      TMR4_SetInterruptHandler@InterruptHandler 000A  
    TMR2_SetInterruptHandler@InterruptHandler 000A   UART1_SetTxInterruptHandler@InterruptHandler 000A  
 UART1_SetRxInterruptHandler@InterruptHandler 000A          __end_of_UART1_SetOverrunErrorHandler 2E60  
                _UART1_SetOverrunErrorHandler 2E56                     _UART1_DefaultErrorHandler 2E90  
                           _SYSTEM_Initialize 2D6A                                    __accesstop 0060  
                     __end_of__initialization 285E                           ??_categorize_number 000B  
                          ?_SYSTEM_Initialize 0001                                 ___rparam_used 0001  
                              __pcstackCOMRAM 0001                                  __pidataBANK0 2E96  
                                __pidataBANK1 2C74                           ??_SYSTEM_Initialize 000C  
                                   ?_TMR2_ISR 0001                                     ?_TMR4_ISR 0001  
                           ??_SPI1_Initialize 000A                              ?_TMR2_Initialize 0001  
                      __end_of_PMD_Initialize 2DB8                         SPI1_ExchangeByte@data 000A  
                                  abs_16@resp 000E                     __end_of_categorize_number 28EC  
                      _categorize_number$2024 001E                        _categorize_number$2027 0020  
                          _spi1_configuration 1001                     _UART1_FramingErrorHandler 004C  
                   __end_of_SYSTEM_Initialize 2D94                                    __pbssBANK0 0060  
                                  __pbssBANK1 014E                                    __pbssBANK2 0200  
               ?_UART1_SetOverrunErrorHandler 000A                        ?_UART1_SetErrorHandler 000A  
                                  __pnvCOMRAM 004C                         _TMR4_InterruptHandler 01DB  
                                     IVTBASEH 3FD6                                       IVTBASEL 3FD5  
                                     IVTBASEU 3FD7                                _InitializeFIFO 2B98  
                            ??_FVR_Initialize 000A                                       ?_abs_16 000A  
                                     ?___lmul 000A                                  ??_UART1_Read 000A  
                                  ??_TMR2_ISR 0006                                    ??_TMR4_ISR 0001  
                     __end_of_ADCC_Initialize 2AF4                       pushString@letterCounter 001A  
                                     _ADFLTRH 3EE7                                       _ADFLTRL 3EE6  
                              ___lmul@product 0012                                       _ADPREVH 3EEE  
                                     _ADPREVL 3EED                              ?_TMR4_Initialize 0001  
                          popData@currentChar 0018                                       _ADSTPTH 3EE5  
                                     _ADSTPTL 3EE4                               ?_PMD_Initialize 0001  
                           _UART1_Receive_ISR 25B8                                       _U1ERRIE 3DFA  
                                     _U1ERRIR 3DF9                            ?_UART1_Receive_ISR 0001  
                                     _U1RXPPS 3AE5                                       _FIR_num 01AB  
                                     _OSCCON1 39D9                                       _OSCCON3 39DB  
                                     _SPI1CLK 3D1C                                       _SPI1RXB 3D10  
                                     _SPI1TXB 3D11                                       _OSCTUNE 39DE  
                                     _SLRCONA 3A43                                       _SLRCONB 3A53  
                                     _SLRCONC 3A63                                       _SLRCOND 3A73  
                                     _SLRCONE 3A83                                     ?_get_gain 0001  
                                   ?_get_page 0001                           ??_UART1_Receive_ISR 0001  
                          __end_of_UART1_Read 2B98                        __end_of_InitializeFIFO 2BE8  
                                     __Hparam 0000                           pushString@newString 0014  
                                     __Lparam 0000                      __end_of_UART1_Initialize 27C2  
                  ??_TMR2_SetInterruptHandler 000C                     __end_of_UART1_Receive_ISR 2678  
                                __psmallconst 1000                                       __pcinit 27C2  
                                     __ramtop 1000                                       __ptext0 1062  
                                     __ptext1 2E22                                       __ptext2 2AF4  
                                     __ptext3 2E0E                                       __ptext4 28EC  
                                     __ptext5 1DEA                                       __ptext6 222E  
                                     __ptext7 29DC                                       __ptext8 1F66  
                                     __ptext9 20CA                         _OSCILLATOR_Initialize 2DF6  
                                   _T2CONbits 3FAC                                       _eusart1 0052  
                                     _send_6F 2E0E                                     _T4CONbits 3FA0  
                                     _popData 222E                                       _send_Fs 00B8  
                    ??_PIN_MANAGER_Initialize 000A                                     _T2HLTbits 3FAD  
                   ?_TMR4_SetInterruptHandler 000A                              FIR_pointer_sim@i 00B1  
                                   _T4HLTbits 3FA1                                    ??_get_gain 000B  
                                  ??_get_page 000B                          end_of_initialization 285E  
                                   _T2RSTbits 3FAF                             __end_of_send_uart 2B46  
                                   _T4RSTbits 3FA3                         categorize_number@mask 0023  
         __end_of_UART1_SetTxInterruptHandler 2E4C                   _UART1_SetTxInterruptHandler 2E42  
                             ?_InitializeFIFO 000A                ??_UART1_SetOverrunErrorHandler 000C  
                                   _SPI1TCNTL 3D12                                       postdec1 3FE5  
                                     postdec2 3FDD                                       postinc0 3FEE  
                                     postinc1 3FE6                                       postinc2 3FDE  
                                  main@F16910 016E                                    main@F16912 014E  
                                  main@F16908 0080                              ?_ADCC_Initialize 0001  
                                   _SPI1_Open 2330                           FIR_pointer_sim@flag 001E  
            __end_of_ADCC_GetSingleConversion 2CE6                             UART1_Write@txData 000A  
                         _UART1_RxDataHandler 2D3E                           FIR_pointer_sim@resp 00AD  
                                   _TRISCbits 3FC4                                    _pushString 1DEA  
                        ?_UART1_RxDataHandler 0001                                    _statusFIFO 2E22  
                             _SPI1_Initialize 2DDC                             pushInteger@F16966 0196  
                __end_of_INTERRUPT_Initialize 2E9E                  _TMR2_DefaultInterruptHandler 0000  
                              __end_of_abs_16 2C30                                    ?_SPI1_Open 0001  
                              __end_of___lmul 29DC                                 __pidataCOMRAM 2E9E  
                      ?_OSCILLATOR_Initialize 0001                                 send_uart@size 000D  
                         start_initialization 27C2                       ??_UART1_SetErrorHandler 000C  
                           ??_FIR_pointer_sim 001F                         ??_UART1_RxDataHandler 0001  
                                  ivt0x8_base 0008                                 _uart1RxBuffer 0070  
                  reorder_array_pt@array_size 000C                                 _uart1TxBuffer 0078  
                                    ??_abs_16 000C                              ??_PMD_Initialize 000A  
                                    ??___lmul 0012                                   __pdataBANK0 00B8  
                                 __pdataBANK1 019B                             ??_checkBoundaries 000E  
                                   _adc_0_acc 008C                                     _adc_1_acc 0088  
                    _ADCC_GetSingleConversion 2CB4                                   __pbssCOMRAM 0033  
                          _UART1_ErrorHandler 01DF                                 __pcstackBANK0 00AD  
                               __pcstackBANK1 0100                       __end_of_SPI1_Initialize 2DF6  
                    _UART1_RxInterruptHandler 0050                                   ?_pushString 0012  
                                   abs_16@num 000A                                   ?_statusFIFO 000A  
                fp__UART1_DefaultErrorHandler 0000                  ?_UART1_SetRxInterruptHandler 000A  
                                   __pnvBANK1 01DB                        _PIN_MANAGER_Initialize 2678  
                           ?_UART1_Initialize 0001          __end_of_UART1_SetFramingErrorHandler 2E6A  
                _UART1_SetFramingErrorHandler 2E60               ADCC_GetSingleConversion@channel 0005  
            __end_of_TMR4_SetInterruptHandler 2E7E                           UART1_Read@readValue 000A  
                                   _avg_adc_0 009A                                     _avg_adc_1 0098  
                        statusFIFO@targetFIFO 000A                            ??_UART1_Initialize 000C  
                                 ??_SPI1_Open 000A                       FIR_pointer_sim@size_num 001C  
                               TMR2_ISR@state 0044                              _reorder_array_pt 28EC  
                            _uart1RxLastError 0045                                 ??_UART1_Write 000A  
                ??_INTERRUPT_InterruptManager 0008                                   __smallconst 1000  
         fp__UART1_DefaultOverrunErrorHandler 0000      __end_of_UART1_DefaultOverrunErrorHandler 2EA2  
          ??_UART1_DefaultOverrunErrorHandler 0001             ?_UART1_DefaultOverrunErrorHandler 0001  
            _UART1_DefaultOverrunErrorHandler 2EA0                                    send_uart@i 0011  
                                    ?_send_6F 0001                                      ?_popData 0012  
                         _final_result_send_0 003B                           _final_result_send_1 0039  
                    InitializeFIFO@targetFIFO 000A                               TMR2_ISR@counter 003D  
                                    _T2CLKCON 3FAE                              ??_InitializeFIFO 000C  
                                 _U1ERRIRbits 3DF9                                      _T4CLKCON 3FA2  
                        _INTERRUPT_Initialize 2E9A         UART1_SetErrorHandler@interruptHandler 000A  
                                    _LATCbits 3FBC                                      _LATDbits 3FBD  
                                    _PIE3bits 3993                                     _send_gain 0094  
                                    _PIE4bits 3994                                     _send_fifo 0092  
                             main@in_values_0 0104                               main@in_values_1 0124  
                                    _PIE7bits 3997                  categorize_number@asciiValues 000C  
                                   _send_uart 2AF4                                  _SPI1CON0bits 3D14  
               ??_UART1_SetRxInterruptHandler 000C                                      i2u134_40 2D62  
                                    i2u150_40 260E                                      i2u134_41 2D5E  
                                    i2u150_41 260A                                      i2u135_40 2CD2  
                                    i2u135_41 2CCE                                      i2u152_40 2654  
                                    i2u151_48 2624                                      i2u152_41 2650  
                                    i2u151_49 2638                                      i2u154_40 24C8  
                                    i2u153_48 265A                                      i2u146_40 2C40  
                                    i2u154_41 24C4                                      i2u153_49 266E  
                                    i2u146_41 2C3C                                      i2u147_40 2C64  
                                    i2u147_41 2C60                                      i2u148_40 25D6  
                                    i2u148_41 25D2                                      i2u181_40 2500  
                                    i2u181_41 24FC                                      i2u149_48 25EC  
                                    i2u190_40 25A2                                      i2u182_40 250E  
                                    i2u149_49 25FE                                      i2u190_41 259E  
                                    i2u182_41 250A                                      i2u184_40 2538  
                                    i2u183_48 2514                                      i2u184_41 2534  
                                    i2u183_49 2526                                      i2u185_40 2546  
                                    i2u185_41 2542                                      i2u187_40 2570  
                                    i2u186_48 254C                                      i2u187_41 256C  
                                    i2u186_49 255E                                      _PIR2bits 39A2  
                                    _SPI1BAUD 3D19                                      i2u188_40 257E  
                                    i2u188_41 257A                                      i2u189_40 2594  
                                    i2u189_41 2590                                      _PIR3bits 39A3  
                                    _PIR4bits 39A4                                      _SPI1CON0 3D14  
                                    _SPI1CON1 3D15                                      _SPI1CON2 3D16  
                                    _PIR7bits 39A7                                     _sent_fifo 0084  
                          FIR_pointer_sim@num 0018                                      _TMR2_ISR 240C  
                                    _TMR4_ISR 2E32                    __end_of_UART1_Transmit_ISR 2C74  
               ?_UART1_SetFramingErrorHandler 000A                                    _ADCON0bits 3EF8  
                                  _ADCON1bits 3EF9                                    _ADCON2bits 3EFA  
                              _struct_eusart1 0200                                    _ADCON3bits 3EFB  
                     categorize_number@F16940 019B                     ?_TMR2_SetInterruptHandler 000A  
                         __end_of_UART1_Write 2A98                              ?_SPI1_Initialize 0001  
                                 _INTCON0bits 3FD2                             ___lmul@multiplier 000A  
                                   copy_data0 27D6                                     copy_data1 27F8  
                       ?_INTERRUPT_Initialize 0001                          fp__UART1_Receive_ISR 0000  
                                send_uart@str 000B                        _uart1TxBufferRemaining 0049  
                           ??_TMR2_Initialize 000C                                 _flag_meas_acc 00A6  
                                _uart1RxCount 0046                                    _ADSTATbits 3EFC  
                                  ?_send_uart 000B                                      __Hrparam 0000  
                                    __Lrparam 0000                                   _FIR_num_sim 01CB  
                              _final_result_0 00A2                                _final_result_1 00A0  
                checkBoundaries@bufferPointer 000C                       ??_OSCILLATOR_Initialize 000A  
                   categorize_number@real_val 001D                               _FIR_pointer_sim 1C1E  
                    _TMR4_SetInterruptHandler 2E74                          pushString@targetFIFO 0012  
                                    __pivt0x8 0008                                      __ptext10 2A3C  
                                    __ptext11 2864                                      __ptext20 2E6A  
                                    __ptext12 2BE8                                      __ptext21 2CE6  
                                    __ptext13 2B46                                      __ptext30 2E88  
                                    __ptext22 2E74                                      __ptext14 2D6A  
                                    __ptext31 2A98                                      __ptext23 2D12  
                                    __ptext15 271E                                      __ptext40 2EA0  
                                    __ptext32 2330                                      __ptext24 2E7E  
                                    __ptext16 2E42                                      __ptext41 2EA2  
                                    __ptext33 2DB8                                      __ptext25 2DDC  
                                    __ptext17 2E4C                                      __ptext42 2E90  
                                    __ptext34 2B98                                      __ptext26 2D94  
                                    __ptext18 2E56                                      __ptext43 2D3E  
                                    __ptext35 1C1E                                      __ptext27 2678  
                                    __ptext19 2E60                                      __ptext44 2E32  
                                    __ptext36 2972                                      __ptext28 2DF6  
                                    __ptext45 240C                                      __ptext37 24E4  
                                    __ptext29 2E9A                                      __ptext46 2CB4  
                                    __ptext38 2C30                                      __ptext47 0000  
                                    __ptext39 25B8                                      _ask_gain 0096  
                                    _flag_sim 00A9                                      _ask_page 00A4  
                      FIR_pointer_sim@size_in 001A                                      _get_gain 20CA  
                                    _get_page 1F66                 __end_of_UART1_SetErrorHandler 2E74  
                           ??_TMR4_Initialize 000C                               _checkBoundaries 29DC  
                   _UART1_OverrunErrorHandler 01E1  UART1_SetOverrunErrorHandler@interruptHandler 000A  
                                    _num_gain 018E                                      _timerINT 0043  
                                    _num_page 0060                             FIR_pointer_sim@in 0016  
                                    isa$xinst 0000                    ??_ADCC_GetSingleConversion 0003  
                  ?_UART1_DefaultErrorHandler 0001            __end_of_INTERRUPT_InterruptManager 25B8  
                  _INTERRUPT_InterruptManager 24E4                                   _UART1_Write 2A3C  
                       fp__UART1_Transmit_ISR 0000                ??_UART1_SetFramingErrorHandler 000C  
                 __end_of_UART1_RxDataHandler 2D6A                                   _uart1RxHead 0048  
                                 _uart1TxHead 004B                                   _uart1RxTail 0047  
                                 _uart1TxTail 004A                                    _FVRCONbits 3EC1  
                      categorize_number@ascii 001C                        ??_INTERRUPT_Initialize 000A  
                                ??_pushString 0016                                  ??_statusFIFO 000C  
                                    intlevel2 0000                                   _send_result 00AA  
                    __end_of_reorder_array_pt 2972                       ?_PIN_MANAGER_Initialize 0001  
                                 ??_send_uart 000F                           _uart1RxStatusBuffer 0068  
                     __end_of_FIR_pointer_sim 1DEA                                    _SPI1SDIPPS 3ADF  
                                  _SPI1SCKPPS 3ADE                                    _UART1_Read 2B46  
UART1_SetFramingErrorHandler@interruptHandler 000A             __end_of_UART1_DefaultErrorHandler 2E96  
                                _pos_num_page 0090                            __end_of_pushString 1F66  
                          __end_of_statusFIFO 2E32                                _FVR_Initialize 2E88  
                          _state_send_final_0 0033                      _UART1_TxInterruptHandler 004E  
                     __end_of_checkBoundaries 2A3C                __end_of_PIN_MANAGER_Initialize 271E  
                           ??_ADCC_Initialize 000A                  ?_UART1_SetTxInterruptHandler 000A  
                       _TMR2_InterruptHandler 01DD                    __end_of_spi1_configuration 1006  
